opt subtitle "HI-TECH Software Omniscient Code Generator (PRO mode) build 10920"

opt pagewidth 120

	opt pm

	processor	16F887
clrc	macro
	bcf	3,0
	endm
clrz	macro
	bcf	3,2
	endm
setc	macro
	bsf	3,0
	endm
setz	macro
	bsf	3,2
	endm
skipc	macro
	btfss	3,0
	endm
skipz	macro
	btfss	3,2
	endm
skipnc	macro
	btfsc	3,0
	endm
skipnz	macro
	btfsc	3,2
	endm
indf	equ	0
indf0	equ	0
pc	equ	2
pcl	equ	2
status	equ	3
fsr	equ	4
fsr0	equ	4
c	equ	1
z	equ	0
pclath	equ	10
# 8 "C:\Online Class\HK6\Practice_Micro\tmr0 counter\tmr0 ct.c"
	psect config,class=CONFIG,delta=2 ;#
# 8 "C:\Online Class\HK6\Practice_Micro\tmr0 counter\tmr0 ct.c"
	dw 0xFFFA & 0xFFF7 & 0xFFEF & 0xFFFF & 0xFFFF & 0xFFFF & 0xFFFF & 0xFBFF & 0xF7FF & 0xEFFF & 0xFFFF ;#
	FNCALL	_main,_lcd_init
	FNCALL	_main,___lbtoft
	FNCALL	_main,___ftmul
	FNCALL	_main,___ftadd
	FNCALL	_main,___ftsub
	FNCALL	_main,___ftdiv
	FNCALL	_main,_lcd_gotoxy
	FNCALL	_main,_printf
	FNCALL	_printf,_putch
	FNCALL	_printf,_isdigit
	FNCALL	_printf,___wmul
	FNCALL	_printf,___ftge
	FNCALL	_printf,___ftneg
	FNCALL	_printf,___awdiv
	FNCALL	_printf,_scale
	FNCALL	_printf,___ftmul
	FNCALL	_printf,_fround
	FNCALL	_printf,___ftadd
	FNCALL	_printf,___fttol
	FNCALL	_printf,__div_to_l_
	FNCALL	_printf,__tdiv_to_l_
	FNCALL	_printf,___lltoft
	FNCALL	_printf,___ftsub
	FNCALL	_printf,___lldiv
	FNCALL	_printf,___llmod
	FNCALL	_putch,_lcd_putc
	FNCALL	_lcd_putc,_lcd_put_byte
	FNCALL	_lcd_putc,_lcd_busy
	FNCALL	_lcd_putc,_lcd_gotoxy
	FNCALL	_lcd_putc,_isprint
	FNCALL	___ftsub,___ftadd
	FNCALL	_scale,___awmod
	FNCALL	_scale,___awdiv
	FNCALL	_scale,___ftmul
	FNCALL	_scale,___bmul
	FNCALL	_fround,___lbmod
	FNCALL	_fround,___bmul
	FNCALL	_fround,___lbdiv
	FNCALL	_fround,___ftmul
	FNCALL	_lcd_gotoxy,_lcd_put_byte
	FNCALL	_lcd_gotoxy,_lcd_busy
	FNCALL	_lcd_init,_lcd_put_byte
	FNCALL	_lcd_init,_lcd_busy
	FNCALL	___lltoft,___ftpack
	FNCALL	___lbtoft,___ftpack
	FNCALL	___ftmul,___ftpack
	FNCALL	___ftdiv,___ftpack
	FNCALL	___ftadd,___ftpack
	FNROOT	_main
	FNCALL	_ngat,i1___ftadd
	FNCALL	i1___ftadd,i1___ftpack
	FNCALL	intlevel1,_ngat
	global	intlevel1
	FNROOT	intlevel1
	global	__npowers_
psect	strings,class=STRING,delta=2
global __pstrings
__pstrings:
;	global	stringdir,stringtab,__stringbase
stringtab:
;	String table - string pointers are 1 byte each
stringcode:stringdir:
movlw high(stringdir)
movwf pclath
movf fsr,w
incf fsr
	addwf pc
__stringbase:
	retlw	0
psect	strings
	file	"C:\Program Files (x86)\HI-TECH Software\PICC\9.83\sources\powers.c"
	line	39
__npowers_:
	retlw	0x0
	retlw	0x80
	retlw	0x3f

	retlw	0xcd
	retlw	0xcc
	retlw	0x3d

	retlw	0xd7
	retlw	0x23
	retlw	0x3c

	retlw	0x12
	retlw	0x83
	retlw	0x3a

	retlw	0xb7
	retlw	0xd1
	retlw	0x38

	retlw	0xc6
	retlw	0x27
	retlw	0x37

	retlw	0x38
	retlw	0x86
	retlw	0x35

	retlw	0xc0
	retlw	0xd6
	retlw	0x33

	retlw	0xcc
	retlw	0x2b
	retlw	0x32

	retlw	0x70
	retlw	0x89
	retlw	0x30

	retlw	0xe7
	retlw	0xdb
	retlw	0x2e

	retlw	0xe5
	retlw	0x3c
	retlw	0x1e

	retlw	0x42
	retlw	0xa2
	retlw	0xd

	global	__powers_
psect	strings
	file	"C:\Program Files (x86)\HI-TECH Software\PICC\9.83\sources\powers.c"
	line	7
__powers_:
	retlw	0x0
	retlw	0x80
	retlw	0x3f

	retlw	0x0
	retlw	0x20
	retlw	0x41

	retlw	0x0
	retlw	0xc8
	retlw	0x42

	retlw	0x0
	retlw	0x7a
	retlw	0x44

	retlw	0x40
	retlw	0x1c
	retlw	0x46

	retlw	0x50
	retlw	0xc3
	retlw	0x47

	retlw	0x24
	retlw	0x74
	retlw	0x49

	retlw	0x97
	retlw	0x18
	retlw	0x4b

	retlw	0xbc
	retlw	0xbe
	retlw	0x4c

	retlw	0x6b
	retlw	0x6e
	retlw	0x4e

	retlw	0x3
	retlw	0x15
	retlw	0x50

	retlw	0x79
	retlw	0xad
	retlw	0x60

	retlw	0xf3
	retlw	0x49
	retlw	0x71

	global	_dpowers
psect	strings
	file	"C:\Program Files (x86)\HI-TECH Software\PICC\9.83\lib\doprnt.c"
	line	350
_dpowers:
	retlw	01h
	retlw	0
	retlw	0
	retlw	0

	retlw	0Ah
	retlw	0
	retlw	0
	retlw	0

	retlw	064h
	retlw	0
	retlw	0
	retlw	0

	retlw	0E8h
	retlw	03h
	retlw	0
	retlw	0

	retlw	010h
	retlw	027h
	retlw	0
	retlw	0

	retlw	0A0h
	retlw	086h
	retlw	01h
	retlw	0

	retlw	040h
	retlw	042h
	retlw	0Fh
	retlw	0

	retlw	080h
	retlw	096h
	retlw	098h
	retlw	0

	retlw	0
	retlw	0E1h
	retlw	0F5h
	retlw	05h

	retlw	0
	retlw	0CAh
	retlw	09Ah
	retlw	03Bh

	global	__npowers_
	global	__powers_
	global	_dpowers
	global	_dem
	global	_kq
	global	_rpm
	global	_sum
	global	_tam
	global	_TMR0
_TMR0	set	1
	global	_GIE
_GIE	set	95
	global	_RD1
_RD1	set	65
	global	_RD2
_RD2	set	66
	global	_RD3
_RD3	set	67
	global	_RD4
_RD4	set	68
	global	_RD5
_RD5	set	69
	global	_RD6
_RD6	set	70
	global	_RD7
_RD7	set	71
	global	_T0IE
_T0IE	set	93
	global	_T0IF
_T0IF	set	90
	global	_TRISD
_TRISD	set	136
	global	_PSA
_PSA	set	1035
	global	_T0CS
_T0CS	set	1037
	global	_T0SE
_T0SE	set	1036
	global	_TRISA4
_TRISA4	set	1068
	global	_TRISD1
_TRISD1	set	1089
	global	_TRISD2
_TRISD2	set	1090
	global	_TRISD3
_TRISD3	set	1091
	global	_TRISD4
_TRISD4	set	1092
	global	_TRISD5
_TRISD5	set	1093
	global	_TRISD6
_TRISD6	set	1094
	global	_TRISD7
_TRISD7	set	1095
	global	_ANSEL
_ANSEL	set	392
	global	_ANSELH
_ANSELH	set	393
	
STR_2:	
	retlw	114	;'r'
	retlw	112	;'p'
	retlw	109	;'m'
	retlw	58	;':'
	retlw	32	;' '
	retlw	37	;'%'
	retlw	51	;'3'
	retlw	46	;'.'
	retlw	49	;'1'
	retlw	102	;'f'
	retlw	0
psect	strings
	
STR_1:	
	retlw	112	;'p'
	retlw	112	;'p'
	retlw	115	;'s'
	retlw	58	;':'
	retlw	37	;'%'
	retlw	51	;'3'
	retlw	46	;'.'
	retlw	48	;'0'
	retlw	102	;'f'
	retlw	0
psect	strings
	file	"tmr0 counter.as"
	line	#
psect cinit,class=CODE,delta=2
global start_initialization
start_initialization:

psect	bssBANK1,class=BANK1,space=1
global __pbssBANK1
__pbssBANK1:
_dem:
       ds      3

_kq:
       ds      3

_rpm:
       ds      3

_sum:
       ds      3

_tam:
       ds      3

; Clear objects allocated to BANK1
psect cinit,class=CODE,delta=2
	bsf	status, 5	;RP0=1, select bank1
	clrf	((__pbssBANK1)+0)&07Fh
	clrf	((__pbssBANK1)+1)&07Fh
	clrf	((__pbssBANK1)+2)&07Fh
	clrf	((__pbssBANK1)+3)&07Fh
	clrf	((__pbssBANK1)+4)&07Fh
	clrf	((__pbssBANK1)+5)&07Fh
	clrf	((__pbssBANK1)+6)&07Fh
	clrf	((__pbssBANK1)+7)&07Fh
	clrf	((__pbssBANK1)+8)&07Fh
	clrf	((__pbssBANK1)+9)&07Fh
	clrf	((__pbssBANK1)+10)&07Fh
	clrf	((__pbssBANK1)+11)&07Fh
	clrf	((__pbssBANK1)+12)&07Fh
	clrf	((__pbssBANK1)+13)&07Fh
	clrf	((__pbssBANK1)+14)&07Fh
psect cinit,class=CODE,delta=2
global end_of_initialization

;End of C runtime variable initialization code

end_of_initialization:
clrf status
ljmp _main	;jump to C main() function
psect	cstackBANK1,class=BANK1,space=1
global __pcstackBANK1
__pcstackBANK1:
	global	?_printf
?_printf:	; 2 bytes @ 0x0
	ds	3
	global	??_printf
??_printf:	; 0 bytes @ 0x3
	ds	5
	global	_printf$3161
_printf$3161:	; 4 bytes @ 0x8
	ds	4
	global	printf@ap
printf@ap:	; 1 bytes @ 0xC
	ds	1
	global	printf@integ
printf@integ:	; 3 bytes @ 0xD
	ds	3
	global	printf@_val
printf@_val:	; 4 bytes @ 0x10
	ds	4
	global	printf@flag
printf@flag:	; 2 bytes @ 0x14
	ds	2
	global	printf@f
printf@f:	; 1 bytes @ 0x16
	ds	1
	global	printf@width
printf@width:	; 2 bytes @ 0x17
	ds	2
	global	printf@exp
printf@exp:	; 2 bytes @ 0x19
	ds	2
	global	printf@fval
printf@fval:	; 3 bytes @ 0x1B
	ds	3
	global	printf@prec
printf@prec:	; 2 bytes @ 0x1E
	ds	2
	global	printf@c
printf@c:	; 1 bytes @ 0x20
	ds	1
	global	??_main
??_main:	; 0 bytes @ 0x21
	ds	3
psect	cstackCOMMON,class=COMMON,space=1
global __pcstackCOMMON
__pcstackCOMMON:
	global	?_lcd_init
?_lcd_init:	; 0 bytes @ 0x0
	global	?_lcd_putc
?_lcd_putc:	; 0 bytes @ 0x0
	global	?_isprint
?_isprint:	; 1 bit 
	global	?_isdigit
?_isdigit:	; 1 bit 
	global	?_putch
?_putch:	; 0 bytes @ 0x0
	global	?_ngat
?_ngat:	; 0 bytes @ 0x0
	global	?_lcd_busy
?_lcd_busy:	; 1 bytes @ 0x0
	global	?_main
?_main:	; 2 bytes @ 0x0
	global	?i1___ftpack
?i1___ftpack:	; 3 bytes @ 0x0
	global	i1___ftpack@arg
i1___ftpack@arg:	; 3 bytes @ 0x0
	ds	3
	global	i1___ftpack@exp
i1___ftpack@exp:	; 1 bytes @ 0x3
	ds	1
	global	i1___ftpack@sign
i1___ftpack@sign:	; 1 bytes @ 0x4
	ds	1
	global	??i1___ftpack
??i1___ftpack:	; 0 bytes @ 0x5
	ds	3
	global	?i1___ftadd
?i1___ftadd:	; 3 bytes @ 0x8
	global	i1___ftadd@f1
i1___ftadd@f1:	; 3 bytes @ 0x8
	ds	3
	global	i1___ftadd@f2
i1___ftadd@f2:	; 3 bytes @ 0xB
	ds	3
psect	cstackBANK0,class=BANK0,space=1
global __pcstackBANK0
__pcstackBANK0:
	global	??i1___ftadd
??i1___ftadd:	; 0 bytes @ 0x0
	ds	3
	global	i1___ftadd@sign
i1___ftadd@sign:	; 1 bytes @ 0x3
	ds	1
	global	i1___ftadd@exp2
i1___ftadd@exp2:	; 1 bytes @ 0x4
	ds	1
	global	i1___ftadd@exp1
i1___ftadd@exp1:	; 1 bytes @ 0x5
	ds	1
	global	??_ngat
??_ngat:	; 0 bytes @ 0x6
	ds	2
	global	?_lcd_put_byte
?_lcd_put_byte:	; 0 bytes @ 0x8
	global	??_lcd_busy
??_lcd_busy:	; 0 bytes @ 0x8
	global	??_isprint
??_isprint:	; 0 bytes @ 0x8
	global	??_isdigit
??_isdigit:	; 0 bytes @ 0x8
	global	?___ftge
?___ftge:	; 1 bit 
	global	?___lbmod
?___lbmod:	; 1 bytes @ 0x8
	global	?___wmul
?___wmul:	; 2 bytes @ 0x8
	global	?___awmod
?___awmod:	; 2 bytes @ 0x8
	global	?___ftpack
?___ftpack:	; 3 bytes @ 0x8
	global	?___ftneg
?___ftneg:	; 3 bytes @ 0x8
	global	?__tdiv_to_l_
?__tdiv_to_l_:	; 4 bytes @ 0x8
	global	?__div_to_l_
?__div_to_l_:	; 4 bytes @ 0x8
	global	?___lldiv
?___lldiv:	; 4 bytes @ 0x8
	global	lcd_put_byte@b
lcd_put_byte@b:	; 1 bytes @ 0x8
	global	_isdigit$3669
_isdigit$3669:	; 1 bytes @ 0x8
	global	_isprint$3672
_isprint$3672:	; 1 bytes @ 0x8
	global	___lbmod@divisor
___lbmod@divisor:	; 1 bytes @ 0x8
	global	___wmul@multiplier
___wmul@multiplier:	; 2 bytes @ 0x8
	global	___awmod@divisor
___awmod@divisor:	; 2 bytes @ 0x8
	global	___ftneg@f1
___ftneg@f1:	; 3 bytes @ 0x8
	global	___ftge@ff1
___ftge@ff1:	; 3 bytes @ 0x8
	global	__tdiv_to_l_@f1
__tdiv_to_l_@f1:	; 3 bytes @ 0x8
	global	__div_to_l_@f1
__div_to_l_@f1:	; 3 bytes @ 0x8
	global	___ftpack@arg
___ftpack@arg:	; 3 bytes @ 0x8
	global	___lldiv@divisor
___lldiv@divisor:	; 4 bytes @ 0x8
	ds	1
	global	??_lcd_put_byte
??_lcd_put_byte:	; 0 bytes @ 0x9
	global	??___lbmod
??___lbmod:	; 0 bytes @ 0x9
	global	lcd_busy@busy
lcd_busy@busy:	; 1 bytes @ 0x9
	global	isdigit@c
isdigit@c:	; 1 bytes @ 0x9
	global	isprint@c
isprint@c:	; 1 bytes @ 0x9
	ds	1
	global	___lbmod@dividend
___lbmod@dividend:	; 1 bytes @ 0xA
	global	___wmul@multiplicand
___wmul@multiplicand:	; 2 bytes @ 0xA
	global	___awmod@dividend
___awmod@dividend:	; 2 bytes @ 0xA
	ds	1
	global	??___ftneg
??___ftneg:	; 0 bytes @ 0xB
	global	lcd_put_byte@rs
lcd_put_byte@rs:	; 1 bytes @ 0xB
	global	___lbmod@counter
___lbmod@counter:	; 1 bytes @ 0xB
	global	___ftpack@exp
___ftpack@exp:	; 1 bytes @ 0xB
	global	___ftge@ff2
___ftge@ff2:	; 3 bytes @ 0xB
	global	__tdiv_to_l_@f2
__tdiv_to_l_@f2:	; 3 bytes @ 0xB
	global	__div_to_l_@f2
__div_to_l_@f2:	; 3 bytes @ 0xB
	ds	1
	global	??___wmul
??___wmul:	; 0 bytes @ 0xC
	global	??___awmod
??___awmod:	; 0 bytes @ 0xC
	global	lcd_put_byte@temp
lcd_put_byte@temp:	; 1 bytes @ 0xC
	global	___lbmod@rem
___lbmod@rem:	; 1 bytes @ 0xC
	global	___awmod@counter
___awmod@counter:	; 1 bytes @ 0xC
	global	___ftpack@sign
___ftpack@sign:	; 1 bytes @ 0xC
	global	___wmul@product
___wmul@product:	; 2 bytes @ 0xC
	global	___lldiv@dividend
___lldiv@dividend:	; 4 bytes @ 0xC
	ds	1
	global	??_lcd_init
??_lcd_init:	; 0 bytes @ 0xD
	global	?_lcd_gotoxy
?_lcd_gotoxy:	; 0 bytes @ 0xD
	global	??___ftpack
??___ftpack:	; 0 bytes @ 0xD
	global	?___lbdiv
?___lbdiv:	; 1 bytes @ 0xD
	global	lcd_gotoxy@row
lcd_gotoxy@row:	; 1 bytes @ 0xD
	global	___lbdiv@divisor
___lbdiv@divisor:	; 1 bytes @ 0xD
	global	___awmod@sign
___awmod@sign:	; 1 bytes @ 0xD
	ds	1
	global	??_lcd_gotoxy
??_lcd_gotoxy:	; 0 bytes @ 0xE
	global	??__tdiv_to_l_
??__tdiv_to_l_:	; 0 bytes @ 0xE
	global	??__div_to_l_
??__div_to_l_:	; 0 bytes @ 0xE
	global	??___lbdiv
??___lbdiv:	; 0 bytes @ 0xE
	global	??___ftge
??___ftge:	; 0 bytes @ 0xE
	global	?___awdiv
?___awdiv:	; 2 bytes @ 0xE
	global	lcd_gotoxy@col
lcd_gotoxy@col:	; 1 bytes @ 0xE
	global	___lbdiv@dividend
___lbdiv@dividend:	; 1 bytes @ 0xE
	global	___awdiv@divisor
___awdiv@divisor:	; 2 bytes @ 0xE
	ds	1
	global	lcd_gotoxy@address
lcd_gotoxy@address:	; 1 bytes @ 0xF
	global	___lbdiv@counter
___lbdiv@counter:	; 1 bytes @ 0xF
	ds	1
	global	??_lcd_putc
??_lcd_putc:	; 0 bytes @ 0x10
	global	??___lldiv
??___lldiv:	; 0 bytes @ 0x10
	global	?___lbtoft
?___lbtoft:	; 3 bytes @ 0x10
	global	?___lltoft
?___lltoft:	; 3 bytes @ 0x10
	global	lcd_putc@c
lcd_putc@c:	; 1 bytes @ 0x10
	global	___lbdiv@quotient
___lbdiv@quotient:	; 1 bytes @ 0x10
	global	___awdiv@dividend
___awdiv@dividend:	; 2 bytes @ 0x10
	global	___lldiv@quotient
___lldiv@quotient:	; 4 bytes @ 0x10
	global	___lltoft@c
___lltoft@c:	; 4 bytes @ 0x10
	ds	1
	global	??_putch
??_putch:	; 0 bytes @ 0x11
	global	?___bmul
?___bmul:	; 1 bytes @ 0x11
	global	putch@ki_tu
putch@ki_tu:	; 1 bytes @ 0x11
	global	___bmul@multiplicand
___bmul@multiplicand:	; 1 bytes @ 0x11
	global	__tdiv_to_l_@quot
__tdiv_to_l_@quot:	; 4 bytes @ 0x11
	ds	1
	global	??___bmul
??___bmul:	; 0 bytes @ 0x12
	global	??___awdiv
??___awdiv:	; 0 bytes @ 0x12
	global	___bmul@product
___bmul@product:	; 1 bytes @ 0x12
	global	___awdiv@counter
___awdiv@counter:	; 1 bytes @ 0x12
	ds	1
	global	??___lbtoft
??___lbtoft:	; 0 bytes @ 0x13
	global	___bmul@multiplier
___bmul@multiplier:	; 1 bytes @ 0x13
	global	___lbtoft@c
___lbtoft@c:	; 1 bytes @ 0x13
	global	___awdiv@sign
___awdiv@sign:	; 1 bytes @ 0x13
	ds	1
	global	??___lltoft
??___lltoft:	; 0 bytes @ 0x14
	global	___lldiv@counter
___lldiv@counter:	; 1 bytes @ 0x14
	global	___lltoft@exp
___lltoft@exp:	; 1 bytes @ 0x14
	global	___awdiv@quotient
___awdiv@quotient:	; 2 bytes @ 0x14
	ds	1
	global	?___llmod
?___llmod:	; 4 bytes @ 0x15
	global	__tdiv_to_l_@cntr
__tdiv_to_l_@cntr:	; 1 bytes @ 0x15
	global	___llmod@divisor
___llmod@divisor:	; 4 bytes @ 0x15
	ds	1
	global	?___fttol
?___fttol:	; 4 bytes @ 0x16
	global	__tdiv_to_l_@exp1
__tdiv_to_l_@exp1:	; 1 bytes @ 0x16
	global	___fttol@f1
___fttol@f1:	; 3 bytes @ 0x16
	global	__div_to_l_@quot
__div_to_l_@quot:	; 4 bytes @ 0x16
	ds	3
	global	___llmod@dividend
___llmod@dividend:	; 4 bytes @ 0x19
	ds	1
	global	??___fttol
??___fttol:	; 0 bytes @ 0x1A
	global	__div_to_l_@cntr
__div_to_l_@cntr:	; 1 bytes @ 0x1A
	ds	1
	global	__div_to_l_@exp1
__div_to_l_@exp1:	; 1 bytes @ 0x1B
	ds	2
	global	??___llmod
??___llmod:	; 0 bytes @ 0x1D
	global	___fttol@sign1
___fttol@sign1:	; 1 bytes @ 0x1D
	global	___llmod@counter
___llmod@counter:	; 1 bytes @ 0x1D
	ds	1
	global	___fttol@lval
___fttol@lval:	; 4 bytes @ 0x1E
	ds	4
	global	___fttol@exp1
___fttol@exp1:	; 1 bytes @ 0x22
	ds	1
	global	?___ftmul
?___ftmul:	; 3 bytes @ 0x23
	global	___ftmul@f1
___ftmul@f1:	; 3 bytes @ 0x23
	ds	3
	global	___ftmul@f2
___ftmul@f2:	; 3 bytes @ 0x26
	ds	3
	global	??___ftmul
??___ftmul:	; 0 bytes @ 0x29
	ds	3
	global	___ftmul@exp
___ftmul@exp:	; 1 bytes @ 0x2C
	ds	1
	global	___ftmul@f3_as_product
___ftmul@f3_as_product:	; 3 bytes @ 0x2D
	ds	3
	global	___ftmul@cntr
___ftmul@cntr:	; 1 bytes @ 0x30
	ds	1
	global	___ftmul@sign
___ftmul@sign:	; 1 bytes @ 0x31
	ds	1
	global	?_scale
?_scale:	; 3 bytes @ 0x32
	global	?___ftadd
?___ftadd:	; 3 bytes @ 0x32
	global	?___ftdiv
?___ftdiv:	; 3 bytes @ 0x32
	global	___ftadd@f1
___ftadd@f1:	; 3 bytes @ 0x32
	global	___ftdiv@f2
___ftdiv@f2:	; 3 bytes @ 0x32
	ds	3
	global	??_scale
??_scale:	; 0 bytes @ 0x35
	global	___ftadd@f2
___ftadd@f2:	; 3 bytes @ 0x35
	global	___ftdiv@f1
___ftdiv@f1:	; 3 bytes @ 0x35
	ds	3
	global	??___ftadd
??___ftadd:	; 0 bytes @ 0x38
	global	??___ftdiv
??___ftdiv:	; 0 bytes @ 0x38
	ds	1
	global	_scale$4112
_scale$4112:	; 3 bytes @ 0x39
	ds	2
	global	___ftadd@sign
___ftadd@sign:	; 1 bytes @ 0x3B
	global	___ftdiv@cntr
___ftdiv@cntr:	; 1 bytes @ 0x3B
	ds	1
	global	scale@scl
scale@scl:	; 1 bytes @ 0x3C
	global	___ftadd@exp2
___ftadd@exp2:	; 1 bytes @ 0x3C
	global	___ftdiv@f3
___ftdiv@f3:	; 3 bytes @ 0x3C
	ds	1
	global	___ftadd@exp1
___ftadd@exp1:	; 1 bytes @ 0x3D
	ds	1
	global	?_fround
?_fround:	; 3 bytes @ 0x3E
	global	?___ftsub
?___ftsub:	; 3 bytes @ 0x3E
	global	___ftsub@f2
___ftsub@f2:	; 3 bytes @ 0x3E
	ds	1
	global	___ftdiv@exp
___ftdiv@exp:	; 1 bytes @ 0x3F
	ds	1
	global	___ftdiv@sign
___ftdiv@sign:	; 1 bytes @ 0x40
	ds	1
	global	??_fround
??_fround:	; 0 bytes @ 0x41
	global	___ftsub@f1
___ftsub@f1:	; 3 bytes @ 0x41
	global	_fround$4111
_fround$4111:	; 3 bytes @ 0x41
	ds	3
	global	??___ftsub
??___ftsub:	; 0 bytes @ 0x44
	global	_fround$4110
_fround$4110:	; 3 bytes @ 0x44
	ds	3
	global	fround@prec
fround@prec:	; 1 bytes @ 0x47
	ds	1
;;Data sizes: Strings 21, constant 118, data 0, bss 15, persistent 0 stack 0
;;Auto spaces:   Size  Autos    Used
;; COMMON          14     14      14
;; BANK0           80     72      72
;; BANK1           80     36      51
;; BANK3           96      0       0
;; BANK2           96      0       0

;;
;; Pointer list with targets:

;; ?i1___ftpack	float  size(1) Largest target is 0
;;
;; ?i1___ftadd	float  size(1) Largest target is 0
;;
;; ?___lbtoft	float  size(1) Largest target is 0
;;
;; ?___ftpack	float  size(1) Largest target is 0
;;
;; ?___lldiv	unsigned long  size(1) Largest target is 0
;;
;; ?___llmod	unsigned long  size(1) Largest target is 0
;;
;; ?___lltoft	float  size(1) Largest target is 0
;;
;; ?__tdiv_to_l_	unsigned long  size(1) Largest target is 0
;;
;; ?__div_to_l_	unsigned long  size(1) Largest target is 0
;;
;; ?___fttol	long  size(1) Largest target is 0
;;
;; ?___ftneg	float  size(1) Largest target is 0
;;
;; ?___awmod	int  size(1) Largest target is 40
;;		 -> dpowers(CODE[40]), 
;;
;; ?___awdiv	int  size(1) Largest target is 0
;;
;; ?_scale	int  size(1) Largest target is 0
;;
;; ?___wmul	unsigned int  size(1) Largest target is 0
;;
;; ?_fround	unsigned int  size(1) Largest target is 0
;;
;; ?___ftdiv	float  size(1) Largest target is 0
;;
;; ?___ftsub	float  size(1) Largest target is 0
;;
;; ?___ftmul	float  size(1) Largest target is 0
;;
;; ?___ftadd	float  size(1) Largest target is 0
;;
;; printf@f	PTR const unsigned char  size(1) Largest target is 11
;;		 -> STR_2(CODE[11]), STR_1(CODE[10]), 
;;
;; ?_printf	int  size(1) Largest target is 0
;;
;; printf@ap	PTR void [1] size(1) Largest target is 2
;;		 -> ?_printf(BANK1[2]), 
;;
;; S3150$_cp	PTR const unsigned char  size(1) Largest target is 0
;;
;; _val._str._cp	PTR const unsigned char  size(1) Largest target is 0
;;


;;
;; Critical Paths under _main in COMMON
;;
;;   None.
;;
;; Critical Paths under _ngat in COMMON
;;
;;   _ngat->i1___ftadd
;;   i1___ftadd->i1___ftpack
;;
;; Critical Paths under _main in BANK0
;;
;;   _printf->_fround
;;   _putch->_lcd_putc
;;   _lcd_putc->_lcd_gotoxy
;;   ___ftsub->___ftadd
;;   _scale->___ftmul
;;   _fround->___ftadd
;;   _lcd_gotoxy->_lcd_put_byte
;;   _lcd_init->_lcd_put_byte
;;   ___lltoft->___ftpack
;;   ___lbtoft->___ftpack
;;   ___ftmul->___fttol
;;   ___ftdiv->___ftmul
;;   ___ftadd->___ftmul
;;   ___llmod->___lldiv
;;   ___awdiv->___awmod
;;   ___fttol->___awdiv
;;   ___lbdiv->___lbmod
;;   ___bmul->___lbdiv
;;
;; Critical Paths under _ngat in BANK0
;;
;;   _ngat->i1___ftadd
;;
;; Critical Paths under _main in BANK1
;;
;;   _main->_printf
;;
;; Critical Paths under _ngat in BANK1
;;
;;   None.
;;
;; Critical Paths under _main in BANK3
;;
;;   None.
;;
;; Critical Paths under _ngat in BANK3
;;
;;   None.
;;
;; Critical Paths under _main in BANK2
;;
;;   None.
;;
;; Critical Paths under _ngat in BANK2
;;
;;   None.

;;
;;Main: autosize = 0, tempsize = 3, incstack = 0, save=0
;;

;;
;;Call Graph Tables:
;;
;; ---------------------------------------------------------------------------------
;; (Depth) Function   	        Calls       Base Space   Used Autos Params    Refs
;; ---------------------------------------------------------------------------------
;; (0) _main                                                 3     3      0   14558
;;                                             33 BANK1      3     3      0
;;                           _lcd_init
;;                           ___lbtoft
;;                            ___ftmul
;;                            ___ftadd
;;                            ___ftsub
;;                            ___ftdiv
;;                         _lcd_gotoxy
;;                             _printf
;; ---------------------------------------------------------------------------------
;; (1) _printf                                              37    34      3   10603
;;                                              0 BANK1     33    30      3
;;                              _putch
;;                            _isdigit
;;                             ___wmul
;;                             ___ftge
;;                            ___ftneg
;;                            ___awdiv
;;                              _scale
;;                            ___ftmul
;;                             _fround
;;                            ___ftadd
;;                            ___fttol
;;                         __div_to_l_
;;                        __tdiv_to_l_
;;                           ___lltoft
;;                            ___ftsub
;;                            ___lldiv
;;                            ___llmod
;; ---------------------------------------------------------------------------------
;; (2) _putch                                                1     1      0     713
;;                                             17 BANK0      1     1      0
;;                           _lcd_putc
;; ---------------------------------------------------------------------------------
;; (3) _lcd_putc                                             1     1      0     691
;;                                             16 BANK0      1     1      0
;;                       _lcd_put_byte
;;                           _lcd_busy
;;                         _lcd_gotoxy
;;                            _isprint
;; ---------------------------------------------------------------------------------
;; (2) ___ftsub                                              6     0      6    1094
;;                                             62 BANK0      6     0      6
;;                            ___ftadd
;;                           ___lltoft (ARG)
;; ---------------------------------------------------------------------------------
;; (2) _scale                                               14    11      3    1688
;;                                             50 BANK0     11     8      3
;;                            ___awmod
;;                            ___awdiv
;;                            ___ftmul
;;                             ___bmul
;;                            ___fttol (ARG)
;; ---------------------------------------------------------------------------------
;; (2) _fround                                              13    10      3    1215
;;                                             62 BANK0     10     7      3
;;                            ___lbmod
;;                             ___bmul
;;                            ___lbdiv
;;                            ___ftmul
;;                            ___ftadd (ARG)
;; ---------------------------------------------------------------------------------
;; (4) _lcd_gotoxy                                           3     2      1     313
;;                                             13 BANK0      3     2      1
;;                       _lcd_put_byte
;;                           _lcd_busy
;; ---------------------------------------------------------------------------------
;; (1) _lcd_init                                             4     4      0     244
;;                                             13 BANK0      3     3      0
;;                       _lcd_put_byte
;;                           _lcd_busy
;; ---------------------------------------------------------------------------------
;; (2) ___lltoft                                             5     1      4     278
;;                                             16 BANK0      5     1      4
;;                           ___ftpack
;; ---------------------------------------------------------------------------------
;; (1) ___lbtoft                                             4     1      3     231
;;                                             16 BANK0      4     1      3
;;                           ___ftpack
;; ---------------------------------------------------------------------------------
;; (3) ___ftmul                                             15     9      6     535
;;                                             35 BANK0     15     9      6
;;                           ___ftpack
;;                            ___fttol (ARG)
;;                            ___awdiv (ARG)
;;                            ___awmod (ARG)
;;                             ___bmul (ARG)
;;                            ___lbdiv (ARG)
;;                            ___lbmod (ARG)
;; ---------------------------------------------------------------------------------
;; (1) ___ftdiv                                             15     9      6     489
;;                                             50 BANK0     15     9      6
;;                           ___ftpack
;;                            ___ftmul (ARG)
;; ---------------------------------------------------------------------------------
;; (3) ___ftadd                                             12     6      6    1049
;;                                             50 BANK0     12     6      6
;;                           ___ftpack
;;                           ___lbtoft (ARG)
;;                            ___ftmul (ARG)
;;                            ___lbmod (ARG)
;;                             ___bmul (ARG)
;;                            ___lbdiv (ARG)
;; ---------------------------------------------------------------------------------
;; (5) _lcd_busy                                             2     2      0      23
;;                                              8 BANK0      2     2      0
;; ---------------------------------------------------------------------------------
;; (5) _lcd_put_byte                                         5     4      1     221
;;                                              8 BANK0      5     4      1
;; ---------------------------------------------------------------------------------
;; (3) ___awmod                                              6     2      4     296
;;                                              8 BANK0      6     2      4
;; ---------------------------------------------------------------------------------
;; (2) ___lldiv                                             13     5      8     162
;;                                              8 BANK0     13     5      8
;; ---------------------------------------------------------------------------------
;; (2) ___ftge                                               6     0      6     136
;;                                              8 BANK0      6     0      6
;; ---------------------------------------------------------------------------------
;; (2) ___ftneg                                              3     0      3      45
;;                                              8 BANK0      3     0      3
;; ---------------------------------------------------------------------------------
;; (2) ___llmod                                              9     1      8     159
;;                                             21 BANK0      9     1      8
;;                            ___lldiv (ARG)
;; ---------------------------------------------------------------------------------
;; (3) ___awdiv                                              8     4      4     300
;;                                             14 BANK0      8     4      4
;;                            ___awmod (ARG)
;; ---------------------------------------------------------------------------------
;; (2) ___fttol                                             13     9      4     252
;;                                             22 BANK0     13     9      4
;;                           ___ftpack (ARG)
;;                            ___awmod (ARG)
;;                            ___awdiv (ARG)
;;                             ___bmul (ARG)
;; ---------------------------------------------------------------------------------
;; (4) ___ftpack                                             8     3      5     209
;;                                              8 BANK0      8     3      5
;; ---------------------------------------------------------------------------------
;; (3) ___lbmod                                              5     4      1     159
;;                                              8 BANK0      5     4      1
;; ---------------------------------------------------------------------------------
;; (3) ___lbdiv                                              4     3      1     162
;;                                             13 BANK0      4     3      1
;;                            ___lbmod (ARG)
;; ---------------------------------------------------------------------------------
;; (2) ___wmul                                               6     2      4      92
;;                                              8 BANK0      6     2      4
;; ---------------------------------------------------------------------------------
;; (3) ___bmul                                               3     2      1      68
;;                                             17 BANK0      3     2      1
;;                            ___lbmod (ARG)
;;                            ___lbdiv (ARG)
;; ---------------------------------------------------------------------------------
;; (2) __div_to_l_                                          20    14      6     446
;;                                              8 BANK0     20    14      6
;; ---------------------------------------------------------------------------------
;; (2) __tdiv_to_l_                                         15     9      6     303
;;                                              8 BANK0     15     9      6
;; ---------------------------------------------------------------------------------
;; (2) _isdigit                                              2     2      0      68
;;                                              8 BANK0      2     2      0
;; ---------------------------------------------------------------------------------
;; (4) _isprint                                              2     2      0      68
;;                                              8 BANK0      2     2      0
;; ---------------------------------------------------------------------------------
;; Estimated maximum stack depth 5
;; ---------------------------------------------------------------------------------
;; (Depth) Function   	        Calls       Base Space   Used Autos Params    Refs
;; ---------------------------------------------------------------------------------
;; (6) _ngat                                                 2     2      0    3432
;;                                              6 BANK0      2     2      0
;;                          i1___ftadd
;; ---------------------------------------------------------------------------------
;; (7) i1___ftadd                                           12     6      6    3432
;;                                              8 COMMON     6     0      6
;;                                              0 BANK0      6     6      0
;;                         i1___ftpack
;; ---------------------------------------------------------------------------------
;; (8) i1___ftpack                                           8     3      5     679
;;                                              0 COMMON     8     3      5
;; ---------------------------------------------------------------------------------
;; Estimated maximum stack depth 8
;; ---------------------------------------------------------------------------------

;; Call Graph Graphs:

;; _main (ROOT)
;;   _lcd_init
;;     _lcd_put_byte
;;     _lcd_busy
;;   ___lbtoft
;;     ___ftpack
;;   ___ftmul
;;     ___ftpack
;;     ___fttol (ARG)
;;       ___ftpack (ARG)
;;       ___awmod (ARG)
;;       ___awdiv (ARG)
;;         ___awmod (ARG)
;;       ___bmul (ARG)
;;         ___lbmod (ARG)
;;         ___lbdiv (ARG)
;;           ___lbmod (ARG)
;;     ___awdiv (ARG)
;;       ___awmod (ARG)
;;     ___awmod (ARG)
;;     ___bmul (ARG)
;;       ___lbmod (ARG)
;;       ___lbdiv (ARG)
;;         ___lbmod (ARG)
;;     ___lbdiv (ARG)
;;       ___lbmod (ARG)
;;     ___lbmod (ARG)
;;   ___ftadd
;;     ___ftpack
;;     ___lbtoft (ARG)
;;       ___ftpack
;;     ___ftmul (ARG)
;;       ___ftpack
;;       ___fttol (ARG)
;;         ___ftpack (ARG)
;;         ___awmod (ARG)
;;         ___awdiv (ARG)
;;           ___awmod (ARG)
;;         ___bmul (ARG)
;;           ___lbmod (ARG)
;;           ___lbdiv (ARG)
;;             ___lbmod (ARG)
;;       ___awdiv (ARG)
;;         ___awmod (ARG)
;;       ___awmod (ARG)
;;       ___bmul (ARG)
;;         ___lbmod (ARG)
;;         ___lbdiv (ARG)
;;           ___lbmod (ARG)
;;       ___lbdiv (ARG)
;;         ___lbmod (ARG)
;;       ___lbmod (ARG)
;;     ___lbmod (ARG)
;;     ___bmul (ARG)
;;       ___lbmod (ARG)
;;       ___lbdiv (ARG)
;;         ___lbmod (ARG)
;;     ___lbdiv (ARG)
;;       ___lbmod (ARG)
;;   ___ftsub
;;     ___ftadd
;;       ___ftpack
;;       ___lbtoft (ARG)
;;         ___ftpack
;;       ___ftmul (ARG)
;;         ___ftpack
;;         ___fttol (ARG)
;;           ___ftpack (ARG)
;;           ___awmod (ARG)
;;           ___awdiv (ARG)
;;             ___awmod (ARG)
;;           ___bmul (ARG)
;;             ___lbmod (ARG)
;;             ___lbdiv (ARG)
;;               ___lbmod (ARG)
;;         ___awdiv (ARG)
;;           ___awmod (ARG)
;;         ___awmod (ARG)
;;         ___bmul (ARG)
;;           ___lbmod (ARG)
;;           ___lbdiv (ARG)
;;             ___lbmod (ARG)
;;         ___lbdiv (ARG)
;;           ___lbmod (ARG)
;;         ___lbmod (ARG)
;;       ___lbmod (ARG)
;;       ___bmul (ARG)
;;         ___lbmod (ARG)
;;         ___lbdiv (ARG)
;;           ___lbmod (ARG)
;;       ___lbdiv (ARG)
;;         ___lbmod (ARG)
;;     ___lltoft (ARG)
;;       ___ftpack
;;   ___ftdiv
;;     ___ftpack
;;     ___ftmul (ARG)
;;       ___ftpack
;;       ___fttol (ARG)
;;         ___ftpack (ARG)
;;         ___awmod (ARG)
;;         ___awdiv (ARG)
;;           ___awmod (ARG)
;;         ___bmul (ARG)
;;           ___lbmod (ARG)
;;           ___lbdiv (ARG)
;;             ___lbmod (ARG)
;;       ___awdiv (ARG)
;;         ___awmod (ARG)
;;       ___awmod (ARG)
;;       ___bmul (ARG)
;;         ___lbmod (ARG)
;;         ___lbdiv (ARG)
;;           ___lbmod (ARG)
;;       ___lbdiv (ARG)
;;         ___lbmod (ARG)
;;       ___lbmod (ARG)
;;   _lcd_gotoxy
;;     _lcd_put_byte
;;     _lcd_busy
;;   _printf
;;     _putch
;;       _lcd_putc
;;         _lcd_put_byte
;;         _lcd_busy
;;         _lcd_gotoxy
;;           _lcd_put_byte
;;           _lcd_busy
;;         _isprint
;;     _isdigit
;;     ___wmul
;;     ___ftge
;;     ___ftneg
;;     ___awdiv
;;       ___awmod (ARG)
;;     _scale
;;       ___awmod
;;       ___awdiv
;;         ___awmod (ARG)
;;       ___ftmul
;;         ___ftpack
;;         ___fttol (ARG)
;;           ___ftpack (ARG)
;;           ___awmod (ARG)
;;           ___awdiv (ARG)
;;             ___awmod (ARG)
;;           ___bmul (ARG)
;;             ___lbmod (ARG)
;;             ___lbdiv (ARG)
;;               ___lbmod (ARG)
;;         ___awdiv (ARG)
;;           ___awmod (ARG)
;;         ___awmod (ARG)
;;         ___bmul (ARG)
;;           ___lbmod (ARG)
;;           ___lbdiv (ARG)
;;             ___lbmod (ARG)
;;         ___lbdiv (ARG)
;;           ___lbmod (ARG)
;;         ___lbmod (ARG)
;;       ___bmul
;;         ___lbmod (ARG)
;;         ___lbdiv (ARG)
;;           ___lbmod (ARG)
;;       ___fttol (ARG)
;;         ___ftpack (ARG)
;;         ___awmod (ARG)
;;         ___awdiv (ARG)
;;           ___awmod (ARG)
;;         ___bmul (ARG)
;;           ___lbmod (ARG)
;;           ___lbdiv (ARG)
;;             ___lbmod (ARG)
;;     ___ftmul
;;       ___ftpack
;;       ___fttol (ARG)
;;         ___ftpack (ARG)
;;         ___awmod (ARG)
;;         ___awdiv (ARG)
;;           ___awmod (ARG)
;;         ___bmul (ARG)
;;           ___lbmod (ARG)
;;           ___lbdiv (ARG)
;;             ___lbmod (ARG)
;;       ___awdiv (ARG)
;;         ___awmod (ARG)
;;       ___awmod (ARG)
;;       ___bmul (ARG)
;;         ___lbmod (ARG)
;;         ___lbdiv (ARG)
;;           ___lbmod (ARG)
;;       ___lbdiv (ARG)
;;         ___lbmod (ARG)
;;       ___lbmod (ARG)
;;     _fround
;;       ___lbmod
;;       ___bmul
;;         ___lbmod (ARG)
;;         ___lbdiv (ARG)
;;           ___lbmod (ARG)
;;       ___lbdiv
;;         ___lbmod (ARG)
;;       ___ftmul
;;         ___ftpack
;;         ___fttol (ARG)
;;           ___ftpack (ARG)
;;           ___awmod (ARG)
;;           ___awdiv (ARG)
;;             ___awmod (ARG)
;;           ___bmul (ARG)
;;             ___lbmod (ARG)
;;             ___lbdiv (ARG)
;;               ___lbmod (ARG)
;;         ___awdiv (ARG)
;;           ___awmod (ARG)
;;         ___awmod (ARG)
;;         ___bmul (ARG)
;;           ___lbmod (ARG)
;;           ___lbdiv (ARG)
;;             ___lbmod (ARG)
;;         ___lbdiv (ARG)
;;           ___lbmod (ARG)
;;         ___lbmod (ARG)
;;       ___ftadd (ARG)
;;         ___ftpack
;;         ___lbtoft (ARG)
;;           ___ftpack
;;         ___ftmul (ARG)
;;           ___ftpack
;;           ___fttol (ARG)
;;             ___ftpack (ARG)
;;             ___awmod (ARG)
;;             ___awdiv (ARG)
;;               ___awmod (ARG)
;;             ___bmul (ARG)
;;               ___lbmod (ARG)
;;               ___lbdiv (ARG)
;;                 ___lbmod (ARG)
;;           ___awdiv (ARG)
;;             ___awmod (ARG)
;;           ___awmod (ARG)
;;           ___bmul (ARG)
;;             ___lbmod (ARG)
;;             ___lbdiv (ARG)
;;               ___lbmod (ARG)
;;           ___lbdiv (ARG)
;;             ___lbmod (ARG)
;;           ___lbmod (ARG)
;;         ___lbmod (ARG)
;;         ___bmul (ARG)
;;           ___lbmod (ARG)
;;           ___lbdiv (ARG)
;;             ___lbmod (ARG)
;;         ___lbdiv (ARG)
;;           ___lbmod (ARG)
;;     ___ftadd
;;       ___ftpack
;;       ___lbtoft (ARG)
;;         ___ftpack
;;       ___ftmul (ARG)
;;         ___ftpack
;;         ___fttol (ARG)
;;           ___ftpack (ARG)
;;           ___awmod (ARG)
;;           ___awdiv (ARG)
;;             ___awmod (ARG)
;;           ___bmul (ARG)
;;             ___lbmod (ARG)
;;             ___lbdiv (ARG)
;;               ___lbmod (ARG)
;;         ___awdiv (ARG)
;;           ___awmod (ARG)
;;         ___awmod (ARG)
;;         ___bmul (ARG)
;;           ___lbmod (ARG)
;;           ___lbdiv (ARG)
;;             ___lbmod (ARG)
;;         ___lbdiv (ARG)
;;           ___lbmod (ARG)
;;         ___lbmod (ARG)
;;       ___lbmod (ARG)
;;       ___bmul (ARG)
;;         ___lbmod (ARG)
;;         ___lbdiv (ARG)
;;           ___lbmod (ARG)
;;       ___lbdiv (ARG)
;;         ___lbmod (ARG)
;;     ___fttol
;;       ___ftpack (ARG)
;;       ___awmod (ARG)
;;       ___awdiv (ARG)
;;         ___awmod (ARG)
;;       ___bmul (ARG)
;;         ___lbmod (ARG)
;;         ___lbdiv (ARG)
;;           ___lbmod (ARG)
;;     __div_to_l_
;;     __tdiv_to_l_
;;     ___lltoft
;;       ___ftpack
;;     ___ftsub
;;       ___ftadd
;;         ___ftpack
;;         ___lbtoft (ARG)
;;           ___ftpack
;;         ___ftmul (ARG)
;;           ___ftpack
;;           ___fttol (ARG)
;;             ___ftpack (ARG)
;;             ___awmod (ARG)
;;             ___awdiv (ARG)
;;               ___awmod (ARG)
;;             ___bmul (ARG)
;;               ___lbmod (ARG)
;;               ___lbdiv (ARG)
;;                 ___lbmod (ARG)
;;           ___awdiv (ARG)
;;             ___awmod (ARG)
;;           ___awmod (ARG)
;;           ___bmul (ARG)
;;             ___lbmod (ARG)
;;             ___lbdiv (ARG)
;;               ___lbmod (ARG)
;;           ___lbdiv (ARG)
;;             ___lbmod (ARG)
;;           ___lbmod (ARG)
;;         ___lbmod (ARG)
;;         ___bmul (ARG)
;;           ___lbmod (ARG)
;;           ___lbdiv (ARG)
;;             ___lbmod (ARG)
;;         ___lbdiv (ARG)
;;           ___lbmod (ARG)
;;       ___lltoft (ARG)
;;         ___ftpack
;;     ___lldiv
;;     ___llmod
;;       ___lldiv (ARG)
;;
;; _ngat (ROOT)
;;   i1___ftadd
;;     i1___ftpack
;;

;; Address spaces:

;;Name               Size   Autos  Total    Cost      Usage
;;BITCOMMON            E      0       0       0        0.0%
;;EEDATA             100      0       0       0        0.0%
;;NULL                 0      0       0       0        0.0%
;;CODE                 0      0       0       0        0.0%
;;COMMON               E      E       E       1      100.0%
;;BITSFR0              0      0       0       1        0.0%
;;SFR0                 0      0       0       1        0.0%
;;BITSFR1              0      0       0       2        0.0%
;;SFR1                 0      0       0       2        0.0%
;;STACK                0      0       B       2        0.0%
;;ABS                  0      0      89       3        0.0%
;;BITBANK0            50      0       0       4        0.0%
;;BITSFR3              0      0       0       4        0.0%
;;SFR3                 0      0       0       4        0.0%
;;BANK0               50     48      48       5       90.0%
;;BITSFR2              0      0       0       5        0.0%
;;SFR2                 0      0       0       5        0.0%
;;BITBANK1            50      0       0       6        0.0%
;;BANK1               50     24      33       7       63.8%
;;BITBANK3            60      0       0       8        0.0%
;;BANK3               60      0       0       9        0.0%
;;BITBANK2            60      0       0      10        0.0%
;;BANK2               60      0       0      11        0.0%
;;DATA                 0      0      94      12        0.0%

	global	_main
psect	maintext,global,class=CODE,delta=2
global __pmaintext
__pmaintext:

;; *************** function _main *****************
;; Defined at:
;;		line 15 in file "C:\Online Class\HK6\Practice_Micro\tmr0 counter\tmr0 ct.c"
;; Parameters:    Size  Location     Type
;;		None
;; Auto vars:     Size  Location     Type
;;		None
;; Return value:  Size  Location     Type
;;                  2  1044[COMMON] int 
;; Registers used:
;;		wreg, fsr0l, fsr0h, status,2, status,0, btemp+1, pclath, cstack
;; Tracked objects:
;;		On entry : 17F/0
;;		On exit  : 60/20
;;		Unchanged: 0/0
;; Data sizes:     COMMON   BANK0   BANK1   BANK3   BANK2
;;      Params:         0       0       0       0       0
;;      Locals:         0       0       0       0       0
;;      Temps:          0       0       3       0       0
;;      Totals:         0       0       3       0       0
;;Total ram usage:        3 bytes
;; Hardware stack levels required when called:    8
;; This function calls:
;;		_lcd_init
;;		___lbtoft
;;		___ftmul
;;		___ftadd
;;		___ftsub
;;		___ftdiv
;;		_lcd_gotoxy
;;		_printf
;; This function is called by:
;;		Startup code after reset
;; This function uses a non-reentrant model
;;
psect	maintext
	file	"C:\Online Class\HK6\Practice_Micro\tmr0 counter\tmr0 ct.c"
	line	15
	global	__size_of_main
	__size_of_main	equ	__end_of_main-_main
	
_main:	
	opt	stack 0
; Regs used in _main: [wreg-fsr0h+status,2+status,0+btemp+1+pclath+cstack]
	line	16
	
l7436:	
;tmr0 ct.c: 16: TRISA4=1;
	bsf	status, 5	;RP0=1, select bank1
	bsf	(1068/8)^080h,(1068)&7
	line	17
	
l7438:	
;tmr0 ct.c: 17: TRISD=0X00;
	clrf	(136)^080h	;volatile
	line	19
;tmr0 ct.c: 19: ANSEL=ANSELH=0;
	bsf	status, 6	;RP1=1, select bank3
	clrf	(393)^0180h	;volatile
	clrf	(392)^0180h	;volatile
	line	20
	
l7440:	
;tmr0 ct.c: 20: T0CS=1;
	bcf	status, 6	;RP1=0, select bank1
	bsf	(1037/8)^080h,(1037)&7
	line	21
	
l7442:	
;tmr0 ct.c: 21: T0SE=0;
	bcf	(1036/8)^080h,(1036)&7
	line	22
	
l7444:	
;tmr0 ct.c: 22: PSA=1;
	bsf	(1035/8)^080h,(1035)&7
	line	25
;tmr0 ct.c: 25: TMR0=0;
	bcf	status, 5	;RP0=0, select bank0
	clrf	(1)	;volatile
	line	27
	
l7446:	
;tmr0 ct.c: 27: T0IE = 1;
	bsf	(93/8),(93)&7
	line	28
	
l7448:	
;tmr0 ct.c: 28: T0IF = 0;
	bcf	(90/8),(90)&7
	line	29
	
l7450:	
;tmr0 ct.c: 29: GIE=1;
	bsf	(95/8),(95)&7
	line	31
	
l7452:	
;tmr0 ct.c: 31: lcd_init();
	fcall	_lcd_init
	line	35
	
l7454:	
;tmr0 ct.c: 34: {
;tmr0 ct.c: 35: sum=dem*256+TMR0;
	bcf	status, 5	;RP0=0, select bank0
	movf	(1),w	;volatile
	fcall	___lbtoft
	movf	(0+(?___lbtoft)),w
	movwf	(?___ftadd)
	movf	(1+(?___lbtoft)),w
	movwf	(?___ftadd+1)
	movf	(2+(?___lbtoft)),w
	movwf	(?___ftadd+2)
	movlw	0x0
	movwf	(?___ftmul)
	movlw	0x80
	movwf	(?___ftmul+1)
	movlw	0x43
	movwf	(?___ftmul+2)
	bsf	status, 5	;RP0=1, select bank1
	movf	(_dem)^080h,w
	bcf	status, 5	;RP0=0, select bank0
	movwf	0+(?___ftmul)+03h
	bsf	status, 5	;RP0=1, select bank1
	movf	(_dem+1)^080h,w
	bcf	status, 5	;RP0=0, select bank0
	movwf	1+(?___ftmul)+03h
	bsf	status, 5	;RP0=1, select bank1
	movf	(_dem+2)^080h,w
	bcf	status, 5	;RP0=0, select bank0
	movwf	2+(?___ftmul)+03h
	fcall	___ftmul
	movf	(0+(?___ftmul)),w
	movwf	0+(?___ftadd)+03h
	movf	(1+(?___ftmul)),w
	movwf	1+(?___ftadd)+03h
	movf	(2+(?___ftmul)),w
	movwf	2+(?___ftadd)+03h
	fcall	___ftadd
	movf	(0+(?___ftadd)),w
	bsf	status, 5	;RP0=1, select bank1
	movwf	(_sum)^080h
	bcf	status, 5	;RP0=0, select bank0
	movf	(1+(?___ftadd)),w
	bsf	status, 5	;RP0=1, select bank1
	movwf	(_sum+1)^080h
	bcf	status, 5	;RP0=0, select bank0
	movf	(2+(?___ftadd)),w
	bsf	status, 5	;RP0=1, select bank1
	movwf	(_sum+2)^080h
	line	36
	
l7456:	
;tmr0 ct.c: 36: tam=sum;
	movf	(_sum)^080h,w
	movwf	(_tam)^080h
	movf	(_sum+1)^080h,w
	movwf	(_tam+1)^080h
	movf	(_sum+2)^080h,w
	movwf	(_tam+2)^080h
	line	37
	
l7458:	
;tmr0 ct.c: 37: _delay((unsigned long)((1000)*(20000000/4000.0)));
	opt asmopt_off
movlw  26
movwf	((??_main+0)^080h+0+2),f
movlw	94
movwf	((??_main+0)^080h+0+1),f
	movlw	134
movwf	((??_main+0)^080h+0),f
u4607:
	decfsz	((??_main+0)^080h+0),f
	goto	u4607
	decfsz	((??_main+0)^080h+0+1),f
	goto	u4607
	decfsz	((??_main+0)^080h+0+2),f
	goto	u4607
	clrwdt
opt asmopt_on

	line	38
	
l7460:	
;tmr0 ct.c: 38: sum=dem*256+TMR0;
	bcf	status, 5	;RP0=0, select bank0
	bcf	status, 6	;RP1=0, select bank0
	movf	(1),w	;volatile
	fcall	___lbtoft
	movf	(0+(?___lbtoft)),w
	movwf	(?___ftadd)
	movf	(1+(?___lbtoft)),w
	movwf	(?___ftadd+1)
	movf	(2+(?___lbtoft)),w
	movwf	(?___ftadd+2)
	movlw	0x0
	movwf	(?___ftmul)
	movlw	0x80
	movwf	(?___ftmul+1)
	movlw	0x43
	movwf	(?___ftmul+2)
	bsf	status, 5	;RP0=1, select bank1
	movf	(_dem)^080h,w
	bcf	status, 5	;RP0=0, select bank0
	movwf	0+(?___ftmul)+03h
	bsf	status, 5	;RP0=1, select bank1
	movf	(_dem+1)^080h,w
	bcf	status, 5	;RP0=0, select bank0
	movwf	1+(?___ftmul)+03h
	bsf	status, 5	;RP0=1, select bank1
	movf	(_dem+2)^080h,w
	bcf	status, 5	;RP0=0, select bank0
	movwf	2+(?___ftmul)+03h
	fcall	___ftmul
	movf	(0+(?___ftmul)),w
	movwf	0+(?___ftadd)+03h
	movf	(1+(?___ftmul)),w
	movwf	1+(?___ftadd)+03h
	movf	(2+(?___ftmul)),w
	movwf	2+(?___ftadd)+03h
	fcall	___ftadd
	movf	(0+(?___ftadd)),w
	bsf	status, 5	;RP0=1, select bank1
	movwf	(_sum)^080h
	bcf	status, 5	;RP0=0, select bank0
	movf	(1+(?___ftadd)),w
	bsf	status, 5	;RP0=1, select bank1
	movwf	(_sum+1)^080h
	bcf	status, 5	;RP0=0, select bank0
	movf	(2+(?___ftadd)),w
	bsf	status, 5	;RP0=1, select bank1
	movwf	(_sum+2)^080h
	line	39
	
l7462:	
;tmr0 ct.c: 39: kq=sum-tam;
	movf	(_tam)^080h,w
	bcf	status, 5	;RP0=0, select bank0
	movwf	(?___ftsub)
	bsf	status, 5	;RP0=1, select bank1
	movf	(_tam+1)^080h,w
	bcf	status, 5	;RP0=0, select bank0
	movwf	(?___ftsub+1)
	bsf	status, 5	;RP0=1, select bank1
	movf	(_tam+2)^080h,w
	bcf	status, 5	;RP0=0, select bank0
	movwf	(?___ftsub+2)
	bsf	status, 5	;RP0=1, select bank1
	movf	(_sum)^080h,w
	bcf	status, 5	;RP0=0, select bank0
	movwf	0+(?___ftsub)+03h
	bsf	status, 5	;RP0=1, select bank1
	movf	(_sum+1)^080h,w
	bcf	status, 5	;RP0=0, select bank0
	movwf	1+(?___ftsub)+03h
	bsf	status, 5	;RP0=1, select bank1
	movf	(_sum+2)^080h,w
	bcf	status, 5	;RP0=0, select bank0
	movwf	2+(?___ftsub)+03h
	fcall	___ftsub
	movf	(0+(?___ftsub)),w
	bsf	status, 5	;RP0=1, select bank1
	movwf	(_kq)^080h
	bcf	status, 5	;RP0=0, select bank0
	movf	(1+(?___ftsub)),w
	bsf	status, 5	;RP0=1, select bank1
	movwf	(_kq+1)^080h
	bcf	status, 5	;RP0=0, select bank0
	movf	(2+(?___ftsub)),w
	bsf	status, 5	;RP0=1, select bank1
	movwf	(_kq+2)^080h
	line	41
	
l7464:	
;tmr0 ct.c: 41: rpm=(kq*60)/360;
	movlw	0x0
	bcf	status, 5	;RP0=0, select bank0
	movwf	(?___ftdiv)
	movlw	0xb4
	movwf	(?___ftdiv+1)
	movlw	0x43
	movwf	(?___ftdiv+2)
	movlw	0x0
	movwf	(?___ftmul)
	movlw	0x70
	movwf	(?___ftmul+1)
	movlw	0x42
	movwf	(?___ftmul+2)
	bsf	status, 5	;RP0=1, select bank1
	movf	(_kq)^080h,w
	bcf	status, 5	;RP0=0, select bank0
	movwf	0+(?___ftmul)+03h
	bsf	status, 5	;RP0=1, select bank1
	movf	(_kq+1)^080h,w
	bcf	status, 5	;RP0=0, select bank0
	movwf	1+(?___ftmul)+03h
	bsf	status, 5	;RP0=1, select bank1
	movf	(_kq+2)^080h,w
	bcf	status, 5	;RP0=0, select bank0
	movwf	2+(?___ftmul)+03h
	fcall	___ftmul
	movf	(0+(?___ftmul)),w
	movwf	0+(?___ftdiv)+03h
	movf	(1+(?___ftmul)),w
	movwf	1+(?___ftdiv)+03h
	movf	(2+(?___ftmul)),w
	movwf	2+(?___ftdiv)+03h
	fcall	___ftdiv
	movf	(0+(?___ftdiv)),w
	bsf	status, 5	;RP0=1, select bank1
	movwf	(_rpm)^080h
	bcf	status, 5	;RP0=0, select bank0
	movf	(1+(?___ftdiv)),w
	bsf	status, 5	;RP0=1, select bank1
	movwf	(_rpm+1)^080h
	bcf	status, 5	;RP0=0, select bank0
	movf	(2+(?___ftdiv)),w
	bsf	status, 5	;RP0=1, select bank1
	movwf	(_rpm+2)^080h
	line	43
	
l7466:	
;tmr0 ct.c: 43: lcd_gotoxy(0,0);
	bcf	status, 5	;RP0=0, select bank0
	clrf	(?_lcd_gotoxy)
	movlw	(0)
	fcall	_lcd_gotoxy
	line	44
	
l7468:	
;tmr0 ct.c: 44: printf("pps:%3.0f",kq);
	bsf	status, 5	;RP0=1, select bank1
	movf	(_kq)^080h,w
	movwf	(?_printf)^080h
	movf	(_kq+1)^080h,w
	movwf	(?_printf+1)^080h
	movf	(_kq+2)^080h,w
	movwf	(?_printf+2)^080h
	movlw	((STR_1-__stringbase))&0ffh
	fcall	_printf
	line	46
	
l7470:	
;tmr0 ct.c: 46: lcd_gotoxy(0,1);
	bcf	status, 5	;RP0=0, select bank0
	clrf	(?_lcd_gotoxy)
	incf	(?_lcd_gotoxy),f
	movlw	(0)
	fcall	_lcd_gotoxy
	line	47
	
l7472:	
;tmr0 ct.c: 47: printf("rpm: %3.1f",rpm);
	bsf	status, 5	;RP0=1, select bank1
	movf	(_rpm)^080h,w
	movwf	(?_printf)^080h
	movf	(_rpm+1)^080h,w
	movwf	(?_printf+1)^080h
	movf	(_rpm+2)^080h,w
	movwf	(?_printf+2)^080h
	movlw	((STR_2-__stringbase))&0ffh
	fcall	_printf
	goto	l7454
	global	start
	ljmp	start
	opt stack 0
psect	maintext
	line	49
GLOBAL	__end_of_main
	__end_of_main:
;; =============== function _main ends ============

	signat	_main,90
	global	_printf
psect	text535,local,class=CODE,delta=2
global __ptext535
__ptext535:

;; *************** function _printf *****************
;; Defined at:
;;		line 461 in file "C:\Program Files (x86)\HI-TECH Software\PICC\9.83\lib\doprnt.c"
;; Parameters:    Size  Location     Type
;;  f               1    wreg     PTR const unsigned char 
;;		 -> STR_2(11), STR_1(10), 
;; Auto vars:     Size  Location     Type
;;  f               1   22[BANK1 ] PTR const unsigned char 
;;		 -> STR_2(11), STR_1(10), 
;;  _val            4   16[BANK1 ] struct .
;;  fval            3   27[BANK1 ] struct .
;;  integ           3   13[BANK1 ] struct .
;;  ival            3    0        struct .
;;  prec            2   30[BANK1 ] int 
;;  exp             2   25[BANK1 ] int 
;;  width           2   23[BANK1 ] int 
;;  flag            2   20[BANK1 ] unsigned short 
;;  c               1   32[BANK1 ] char 
;;  ap              1   12[BANK1 ] PTR void [1]
;;		 -> ?_printf(2), 
;;  d               1    0        unsigned char 
;; Return value:  Size  Location     Type
;;                  2    0[BANK1 ] int 
;; Registers used:
;;		wreg, fsr0l, fsr0h, status,2, status,0, btemp+1, pclath, cstack
;; Tracked objects:
;;		On entry : 60/20
;;		On exit  : 60/20
;;		Unchanged: 0/0
;; Data sizes:     COMMON   BANK0   BANK1   BANK3   BANK2
;;      Params:         0       0       3       0       0
;;      Locals:         0       0      25       0       0
;;      Temps:          0       0       5       0       0
;;      Totals:         0       0      33       0       0
;;Total ram usage:       33 bytes
;; Hardware stack levels used:    1
;; Hardware stack levels required when called:    7
;; This function calls:
;;		_putch
;;		_isdigit
;;		___wmul
;;		___ftge
;;		___ftneg
;;		___awdiv
;;		_scale
;;		___ftmul
;;		_fround
;;		___ftadd
;;		___fttol
;;		__div_to_l_
;;		__tdiv_to_l_
;;		___lltoft
;;		___ftsub
;;		___lldiv
;;		___llmod
;; This function is called by:
;;		_main
;; This function uses a non-reentrant model
;;
psect	text535
	file	"C:\Program Files (x86)\HI-TECH Software\PICC\9.83\sources\doprnt.c"
	line	461
	global	__size_of_printf
	__size_of_printf	equ	__end_of_printf-_printf
	
_printf:	
;; using string table level
	opt	stack 1
; Regs used in _printf: [wreg-fsr0h+status,2+status,0+btemp+1+pclath+cstack]
;printf@f stored from wreg
	line	537
	movwf	(printf@f)^080h
	
l7208:	
	movlw	(?_printf)&0ffh
	movwf	(printf@ap)^080h
	line	540
	goto	l7434
	line	542
	
l7210:	
	movf	(printf@c)^080h,w
	xorlw	025h
	skipnz
	goto	u4161
	goto	u4160
u4161:
	goto	l7214
u4160:
	line	545
	
l7212:	
	movf	(printf@c)^080h,w
	fcall	_putch
	line	546
	goto	l7434
	line	550
	
l7214:	
	clrf	(printf@width)^080h
	clrf	(printf@width+1)^080h
	line	552
	clrf	(printf@flag)^080h
	clrf	(printf@flag+1)^080h
	line	601
	
l7216:	
	movf	(printf@f)^080h,w
	movwf	fsr0
	fcall	stringdir
	fcall	_isdigit
	btfss	status,0
	goto	u4171
	goto	u4170
u4171:
	goto	l7226
u4170:
	line	602
	
l7218:	
	bsf	status, 5	;RP0=1, select bank1
	clrf	(printf@width)^080h
	clrf	(printf@width+1)^080h
	line	604
	
l7220:	
	bsf	status, 5	;RP0=1, select bank1
	movf	(printf@width+1)^080h,w
	bcf	status, 5	;RP0=0, select bank0
	movwf	(?___wmul+1)
	bsf	status, 5	;RP0=1, select bank1
	movf	(printf@width)^080h,w
	bcf	status, 5	;RP0=0, select bank0
	movwf	(?___wmul)
	movlw	0Ah
	movwf	0+(?___wmul)+02h
	clrf	1+(?___wmul)+02h
	fcall	___wmul
	bsf	status, 5	;RP0=1, select bank1
	movf	(printf@f)^080h,w
	movwf	fsr0
	fcall	stringdir
	bcf	status, 5	;RP0=0, select bank0
	addwf	(0+(?___wmul)),w
	bsf	status, 5	;RP0=1, select bank1
	movwf	(??_printf+0)^080h+0
	movlw	0
	skipnc
	movlw	1
	bcf	status, 5	;RP0=0, select bank0
	addwf	(1+(?___wmul)),w
	bsf	status, 5	;RP0=1, select bank1
	movwf	1+(??_printf+0)^080h+0
	movf	0+(??_printf+0)^080h+0,w
	addlw	low(0FFD0h)
	movwf	(printf@width)^080h
	movf	1+(??_printf+0)^080h+0,w
	skipnc
	addlw	1
	addlw	high(0FFD0h)
	movwf	1+(printf@width)^080h
	
l7222:	
	incf	(printf@f)^080h,f
	line	605
	
l7224:	
	movf	(printf@f)^080h,w
	movwf	fsr0
	fcall	stringdir
	fcall	_isdigit
	btfsc	status,0
	goto	u4181
	goto	u4180
u4181:
	goto	l7220
u4180:
	line	614
	
l7226:	
	bsf	status, 5	;RP0=1, select bank1
	movf	(printf@f)^080h,w
	movwf	fsr0
	fcall	stringdir
	xorlw	02Eh
	skipz
	goto	u4191
	goto	u4190
u4191:
	goto	l7240
u4190:
	line	615
	
l7228:	
	bsf	(printf@flag)^080h+(14/8),(14)&7
	line	616
	
l7230:	
	incf	(printf@f)^080h,f
	line	624
	
l7232:	
	clrf	(printf@prec)^080h
	clrf	(printf@prec+1)^080h
	line	625
	goto	l7238
	line	626
	
l7234:	
	bsf	status, 5	;RP0=1, select bank1
	movf	(printf@prec+1)^080h,w
	bcf	status, 5	;RP0=0, select bank0
	movwf	(?___wmul+1)
	bsf	status, 5	;RP0=1, select bank1
	movf	(printf@prec)^080h,w
	bcf	status, 5	;RP0=0, select bank0
	movwf	(?___wmul)
	movlw	0Ah
	movwf	0+(?___wmul)+02h
	clrf	1+(?___wmul)+02h
	fcall	___wmul
	bsf	status, 5	;RP0=1, select bank1
	movf	(printf@f)^080h,w
	movwf	fsr0
	fcall	stringdir
	bcf	status, 5	;RP0=0, select bank0
	addwf	(0+(?___wmul)),w
	bsf	status, 5	;RP0=1, select bank1
	movwf	(??_printf+0)^080h+0
	movlw	0
	skipnc
	movlw	1
	bcf	status, 5	;RP0=0, select bank0
	addwf	(1+(?___wmul)),w
	bsf	status, 5	;RP0=1, select bank1
	movwf	1+(??_printf+0)^080h+0
	movf	0+(??_printf+0)^080h+0,w
	addlw	low(0FFD0h)
	movwf	(printf@prec)^080h
	movf	1+(??_printf+0)^080h+0,w
	skipnc
	addlw	1
	addlw	high(0FFD0h)
	movwf	1+(printf@prec)^080h
	
l7236:	
	incf	(printf@f)^080h,f
	line	625
	
l7238:	
	movf	(printf@f)^080h,w
	movwf	fsr0
	fcall	stringdir
	fcall	_isdigit
	btfsc	status,0
	goto	u4201
	goto	u4200
u4201:
	goto	l7234
u4200:
	goto	l7246
	line	629
	
l7240:	
	clrf	(printf@prec)^080h
	clrf	(printf@prec+1)^080h
	line	631
	
l7242:	
	bsf	(printf@flag)^080h+(12/8),(12)&7
	goto	l7246
	line	665
	
l2202:	
	line	666
	bsf	(printf@flag)^080h+(10/8),(10)&7
	line	667
	goto	l7248
	line	638
	
l7246:	
	bsf	status, 5	;RP0=1, select bank1
	movf	(printf@f)^080h,w
	incf	(printf@f)^080h,f
	movwf	fsr0
	fcall	stringdir
	movwf	(printf@c)^080h
	; Switch size 1, requested type "space"
; Number of cases is 2, Range of values is 0 to 102
; switch strategies available:
; Name         Instructions Cycles
; simple_byte            7     4 (average)
; jumptable            260     6 (fixed)
; rangetable           107     6 (fixed)
; spacedrange          212     9 (fixed)
; locatedrange         103     3 (fixed)
;	Chosen strategy is simple_byte

	opt asmopt_off
	xorlw	0^0	; case 0
	skipnz
	goto	l2263
	xorlw	102^0	; case 102
	skipnz
	goto	l2202
	goto	l7434
	opt asmopt_on

	line	828
	
l7248:	
	movlw	low(0700h)
	andwf	(printf@flag)^080h,w
	movwf	(??_printf+0)^080h+0
	movlw	high(0700h)
	andwf	(printf@flag+1)^080h,w
	movwf	1+(??_printf+0)^080h+0
	movf	1+(??_printf+0)^080h+0,w
	iorwf	0+(??_printf+0)^080h+0,w
	skipnz
	goto	u4211
	goto	u4210
u4211:
	goto	l7390
u4210:
	line	830
	
l7250:	
	btfss	(printf@flag+1)^080h,(12)&7
	goto	u4221
	goto	u4220
u4221:
	goto	l7254
u4220:
	line	832
	
l7252:	
	movlw	06h
	movwf	(printf@prec)^080h
	clrf	(printf@prec+1)^080h
	line	833
	
l7254:	
	movf	(printf@ap)^080h,w
	movwf	fsr0
	bcf	status, 7	;select IRP bank0
	movf	indf,w
	movwf	(printf@fval)^080h
	incf	fsr0,f
	movf	indf,w
	movwf	(printf@fval+1)^080h
	incf	fsr0,f
	movf	indf,w
	movwf	(printf@fval+2)^080h
	
l7256:	
	movlw	(03h)
	addwf	(printf@ap)^080h,f
	line	834
	
l7258:	
	movf	(printf@fval)^080h,w
	bcf	status, 5	;RP0=0, select bank0
	movwf	(?___ftge)
	bsf	status, 5	;RP0=1, select bank1
	movf	(printf@fval+1)^080h,w
	bcf	status, 5	;RP0=0, select bank0
	movwf	(?___ftge+1)
	bsf	status, 5	;RP0=1, select bank1
	movf	(printf@fval+2)^080h,w
	bcf	status, 5	;RP0=0, select bank0
	movwf	(?___ftge+2)
	clrf	0+(?___ftge)+03h
	clrf	1+(?___ftge)+03h
	clrf	2+(?___ftge)+03h
	fcall	___ftge
	btfsc	status,0
	goto	u4231
	goto	u4230
u4231:
	goto	l7264
u4230:
	line	835
	
l7260:	
	bsf	status, 5	;RP0=1, select bank1
	movf	(printf@fval)^080h,w
	bcf	status, 5	;RP0=0, select bank0
	movwf	(?___ftneg)
	bsf	status, 5	;RP0=1, select bank1
	movf	(printf@fval+1)^080h,w
	bcf	status, 5	;RP0=0, select bank0
	movwf	(?___ftneg+1)
	bsf	status, 5	;RP0=1, select bank1
	movf	(printf@fval+2)^080h,w
	bcf	status, 5	;RP0=0, select bank0
	movwf	(?___ftneg+2)
	fcall	___ftneg
	movf	(0+(?___ftneg)),w
	bsf	status, 5	;RP0=1, select bank1
	movwf	(printf@fval)^080h
	bcf	status, 5	;RP0=0, select bank0
	movf	(1+(?___ftneg)),w
	bsf	status, 5	;RP0=1, select bank1
	movwf	(printf@fval+1)^080h
	bcf	status, 5	;RP0=0, select bank0
	movf	(2+(?___ftneg)),w
	bsf	status, 5	;RP0=1, select bank1
	movwf	(printf@fval+2)^080h
	line	836
	
l7262:	
	movlw	03h
	iorwf	(printf@flag)^080h,f
	line	838
	
l7264:	
	bsf	status, 5	;RP0=1, select bank1
	clrf	(printf@exp)^080h
	clrf	(printf@exp+1)^080h
	line	839
	
l7266:	
	movf	(printf@fval+2)^080h,w
	iorwf	(printf@fval+1)^080h,w
	iorwf	(printf@fval)^080h,w
	skipnz
	goto	u4241
	goto	u4240
u4241:
	goto	l7296
u4240:
	line	840
	
l7268:	
	movlw	low(printf@fval)
	movwf	fsr0
	movf	indf,w
	movwf	(??_printf+0)^080h+0+0
	incf	fsr0,f
	movf	indf,w
	movwf	(??_printf+0)^080h+0+1
	incf	fsr0,f
	movf	indf,w
	movwf	(??_printf+0)^080h+0+2
	incf	fsr0,f
	movf	indf,w
	movwf	(??_printf+0)^080h+0+3
	movlw	0Fh
u4255:
	clrc
	rrf	(??_printf+0)^080h+3,f
	rrf	(??_printf+0)^080h+2,f
	rrf	(??_printf+0)^080h+1,f
	rrf	(??_printf+0)^080h+0,f
u4250:
	addlw	-1
	skipz
	goto	u4255
	movf	1+(??_printf+0)^080h+0,w
	movwf	(printf@exp+1)^080h
	movf	0+(??_printf+0)^080h+0,w
	movwf	(printf@exp)^080h
	
l7270:	
	movlw	0FFh
	andwf	(printf@exp)^080h,f
	clrf	(printf@exp+1)^080h
	
l7272:	
	movlw	-126
	addwf	(printf@exp)^080h,f
	skipc
	decf	(printf@exp+1)^080h,f
	line	841
	
l7274:	
	movlw	-1
	addwf	(printf@exp)^080h,f
	skipc
	decf	(printf@exp+1)^080h,f
	line	842
	
l7276:	
	movlw	03h
	bcf	status, 5	;RP0=0, select bank0
	movwf	(?___wmul)
	clrf	(?___wmul+1)
	bsf	status, 5	;RP0=1, select bank1
	movf	(printf@exp+1)^080h,w
	bcf	status, 5	;RP0=0, select bank0
	movwf	1+(?___wmul)+02h
	bsf	status, 5	;RP0=1, select bank1
	movf	(printf@exp)^080h,w
	bcf	status, 5	;RP0=0, select bank0
	movwf	0+(?___wmul)+02h
	fcall	___wmul
	movf	(1+(?___wmul)),w
	bsf	status, 5	;RP0=1, select bank1
	movwf	(printf@exp+1)^080h
	bcf	status, 5	;RP0=0, select bank0
	movf	(0+(?___wmul)),w
	bsf	status, 5	;RP0=1, select bank1
	movwf	(printf@exp)^080h
	line	843
	
l7278:	
	movlw	0Ah
	bcf	status, 5	;RP0=0, select bank0
	movwf	(?___awdiv)
	clrf	(?___awdiv+1)
	bsf	status, 5	;RP0=1, select bank1
	movf	(printf@exp+1)^080h,w
	bcf	status, 5	;RP0=0, select bank0
	movwf	1+(?___awdiv)+02h
	bsf	status, 5	;RP0=1, select bank1
	movf	(printf@exp)^080h,w
	bcf	status, 5	;RP0=0, select bank0
	movwf	0+(?___awdiv)+02h
	fcall	___awdiv
	movf	(1+(?___awdiv)),w
	bsf	status, 5	;RP0=1, select bank1
	movwf	(printf@exp+1)^080h
	bcf	status, 5	;RP0=0, select bank0
	movf	(0+(?___awdiv)),w
	bsf	status, 5	;RP0=1, select bank1
	movwf	(printf@exp)^080h
	line	844
	
l7280:	
	btfss	(printf@exp+1)^080h,7
	goto	u4261
	goto	u4260
u4261:
	goto	l7284
u4260:
	line	845
	
l7282:	
	movlw	-1
	addwf	(printf@exp)^080h,f
	skipc
	decf	(printf@exp+1)^080h,f
	line	849
	
l7284:	
	decf	(printf@exp)^080h,w
	xorlw	0ffh
	fcall	_scale
	movf	(0+(?_scale)),w
	bsf	status, 5	;RP0=1, select bank1
	movwf	(printf@integ)^080h
	bcf	status, 5	;RP0=0, select bank0
	movf	(1+(?_scale)),w
	bsf	status, 5	;RP0=1, select bank1
	movwf	(printf@integ+1)^080h
	bcf	status, 5	;RP0=0, select bank0
	movf	(2+(?_scale)),w
	bsf	status, 5	;RP0=1, select bank1
	movwf	(printf@integ+2)^080h
	line	850
	
l7286:	
	movf	(printf@fval)^080h,w
	bcf	status, 5	;RP0=0, select bank0
	movwf	(?___ftmul)
	bsf	status, 5	;RP0=1, select bank1
	movf	(printf@fval+1)^080h,w
	bcf	status, 5	;RP0=0, select bank0
	movwf	(?___ftmul+1)
	bsf	status, 5	;RP0=1, select bank1
	movf	(printf@fval+2)^080h,w
	bcf	status, 5	;RP0=0, select bank0
	movwf	(?___ftmul+2)
	bsf	status, 5	;RP0=1, select bank1
	movf	(printf@integ)^080h,w
	bcf	status, 5	;RP0=0, select bank0
	movwf	0+(?___ftmul)+03h
	bsf	status, 5	;RP0=1, select bank1
	movf	(printf@integ+1)^080h,w
	bcf	status, 5	;RP0=0, select bank0
	movwf	1+(?___ftmul)+03h
	bsf	status, 5	;RP0=1, select bank1
	movf	(printf@integ+2)^080h,w
	bcf	status, 5	;RP0=0, select bank0
	movwf	2+(?___ftmul)+03h
	fcall	___ftmul
	movf	(0+(?___ftmul)),w
	bsf	status, 5	;RP0=1, select bank1
	movwf	(printf@integ)^080h
	bcf	status, 5	;RP0=0, select bank0
	movf	(1+(?___ftmul)),w
	bsf	status, 5	;RP0=1, select bank1
	movwf	(printf@integ+1)^080h
	bcf	status, 5	;RP0=0, select bank0
	movf	(2+(?___ftmul)),w
	bsf	status, 5	;RP0=1, select bank1
	movwf	(printf@integ+2)^080h
	line	851
	
l7288:	
	movf	(printf@integ)^080h,w
	bcf	status, 5	;RP0=0, select bank0
	movwf	(?___ftge)
	bsf	status, 5	;RP0=1, select bank1
	movf	(printf@integ+1)^080h,w
	bcf	status, 5	;RP0=0, select bank0
	movwf	(?___ftge+1)
	bsf	status, 5	;RP0=1, select bank1
	movf	(printf@integ+2)^080h,w
	bcf	status, 5	;RP0=0, select bank0
	movwf	(?___ftge+2)
	movlw	0x0
	movwf	0+(?___ftge)+03h
	movlw	0x80
	movwf	1+(?___ftge)+03h
	movlw	0x3f
	movwf	2+(?___ftge)+03h
	fcall	___ftge
	btfsc	status,0
	goto	u4271
	goto	u4270
u4271:
	goto	l7292
u4270:
	line	852
	
l7290:	
	movlw	-1
	bsf	status, 5	;RP0=1, select bank1
	addwf	(printf@exp)^080h,f
	skipc
	decf	(printf@exp+1)^080h,f
	goto	l7296
	line	853
	
l7292:	
	bsf	status, 5	;RP0=1, select bank1
	movf	(printf@integ)^080h,w
	bcf	status, 5	;RP0=0, select bank0
	movwf	(?___ftge)
	bsf	status, 5	;RP0=1, select bank1
	movf	(printf@integ+1)^080h,w
	bcf	status, 5	;RP0=0, select bank0
	movwf	(?___ftge+1)
	bsf	status, 5	;RP0=1, select bank1
	movf	(printf@integ+2)^080h,w
	bcf	status, 5	;RP0=0, select bank0
	movwf	(?___ftge+2)
	movlw	0x0
	movwf	0+(?___ftge)+03h
	movlw	0x20
	movwf	1+(?___ftge)+03h
	movlw	0x41
	movwf	2+(?___ftge)+03h
	fcall	___ftge
	btfss	status,0
	goto	u4281
	goto	u4280
u4281:
	goto	l7296
u4280:
	line	854
	
l7294:	
	bsf	status, 5	;RP0=1, select bank1
	incf	(printf@exp)^080h,f
	skipnz
	incf	(printf@exp+1)^080h,f
	line	1115
	
l7296:	
	bsf	status, 5	;RP0=1, select bank1
	movf	(printf@prec+1)^080h,w
	xorlw	80h
	movwf	btemp+1
	movlw	(high(0Dh))^80h
	subwf	btemp+1,w
	skipz
	goto	u4295
	movlw	low(0Dh)
	subwf	(printf@prec)^080h,w
u4295:

	skipnc
	goto	u4291
	goto	u4290
u4291:
	goto	l7300
u4290:
	line	1116
	
l7298:	
	bsf	status, 5	;RP0=1, select bank1
	bcf	status, 6	;RP1=0, select bank1
	movf	(printf@prec)^080h,w
	fcall	_fround
	movf	(0+(?_fround)),w
	movwf	(?___ftadd)
	movf	(1+(?_fround)),w
	movwf	(?___ftadd+1)
	movf	(2+(?_fround)),w
	movwf	(?___ftadd+2)
	bsf	status, 5	;RP0=1, select bank1
	movf	(printf@fval)^080h,w
	bcf	status, 5	;RP0=0, select bank0
	movwf	0+(?___ftadd)+03h
	bsf	status, 5	;RP0=1, select bank1
	movf	(printf@fval+1)^080h,w
	bcf	status, 5	;RP0=0, select bank0
	movwf	1+(?___ftadd)+03h
	bsf	status, 5	;RP0=1, select bank1
	movf	(printf@fval+2)^080h,w
	bcf	status, 5	;RP0=0, select bank0
	movwf	2+(?___ftadd)+03h
	fcall	___ftadd
	movf	(0+(?___ftadd)),w
	bsf	status, 5	;RP0=1, select bank1
	movwf	(printf@fval)^080h
	bcf	status, 5	;RP0=0, select bank0
	movf	(1+(?___ftadd)),w
	bsf	status, 5	;RP0=1, select bank1
	movwf	(printf@fval+1)^080h
	bcf	status, 5	;RP0=0, select bank0
	movf	(2+(?___ftadd)),w
	bsf	status, 5	;RP0=1, select bank1
	movwf	(printf@fval+2)^080h
	line	1119
	
l7300:	
	bsf	status, 5	;RP0=1, select bank1
	bcf	status, 6	;RP1=0, select bank1
	movf	(printf@exp+1)^080h,w
	xorlw	80h
	movwf	btemp+1
	movlw	(high(0Ah))^80h
	subwf	btemp+1,w
	skipz
	goto	u4305
	movlw	low(0Ah)
	subwf	(printf@exp)^080h,w
u4305:

	skipnc
	goto	u4301
	goto	u4300
u4301:
	goto	l7308
u4300:
	
l7302:	
	bsf	status, 5	;RP0=1, select bank1
	bcf	status, 6	;RP1=0, select bank1
	movf	(printf@fval+2)^080h,w
	iorwf	(printf@fval+1)^080h,w
	iorwf	(printf@fval)^080h,w
	skipnz
	goto	u4311
	goto	u4310
u4311:
	goto	l7324
u4310:
	
l7304:	
	movf	(printf@fval)^080h,w
	bcf	status, 5	;RP0=0, select bank0
	movwf	(?___fttol)
	bsf	status, 5	;RP0=1, select bank1
	movf	(printf@fval+1)^080h,w
	bcf	status, 5	;RP0=0, select bank0
	movwf	(?___fttol+1)
	bsf	status, 5	;RP0=1, select bank1
	movf	(printf@fval+2)^080h,w
	bcf	status, 5	;RP0=0, select bank0
	movwf	(?___fttol+2)
	fcall	___fttol
	movf	(3+(?___fttol)),w
	iorwf	(2+(?___fttol)),w
	iorwf	(1+(?___fttol)),w
	iorwf	(0+(?___fttol)),w
	skipz
	goto	u4321
	goto	u4320
u4321:
	goto	l7324
u4320:
	
l7306:	
	bsf	status, 5	;RP0=1, select bank1
	movf	(printf@exp+1)^080h,w
	xorlw	80h
	movwf	btemp+1
	movlw	(high(02h))^80h
	subwf	btemp+1,w
	skipz
	goto	u4335
	movlw	low(02h)
	subwf	(printf@exp)^080h,w
u4335:

	skipc
	goto	u4331
	goto	u4330
u4331:
	goto	l7324
u4330:
	line	1123
	
l7308:	
	bsf	status, 5	;RP0=1, select bank1
	bcf	status, 6	;RP1=0, select bank1
	movf	(printf@integ)^080h,w
	bcf	status, 5	;RP0=0, select bank0
	movwf	(?___ftge)
	bsf	status, 5	;RP0=1, select bank1
	movf	(printf@integ+1)^080h,w
	bcf	status, 5	;RP0=0, select bank0
	movwf	(?___ftge+1)
	bsf	status, 5	;RP0=1, select bank1
	movf	(printf@integ+2)^080h,w
	bcf	status, 5	;RP0=0, select bank0
	movwf	(?___ftge+2)
	movlw	0x70
	movwf	0+(?___ftge)+03h
	movlw	0x89
	movwf	1+(?___ftge)+03h
	movlw	0x40
	movwf	2+(?___ftge)+03h
	fcall	___ftge
	btfsc	status,0
	goto	u4341
	goto	u4340
u4341:
	goto	l7312
u4340:
	line	1124
	
l7310:	
	movlw	-9
	bsf	status, 5	;RP0=1, select bank1
	addwf	(printf@exp)^080h,f
	skipc
	decf	(printf@exp+1)^080h,f
	line	1125
	goto	l7314
	line	1126
	
l7312:	
	movlw	-8
	bsf	status, 5	;RP0=1, select bank1
	addwf	(printf@exp)^080h,f
	skipc
	decf	(printf@exp+1)^080h,f
	line	1128
	
l7314:	
	movf	(printf@exp)^080h,w
	fcall	_scale
	movf	(0+(?_scale)),w
	bsf	status, 5	;RP0=1, select bank1
	movwf	(printf@integ)^080h
	bcf	status, 5	;RP0=0, select bank0
	movf	(1+(?_scale)),w
	bsf	status, 5	;RP0=1, select bank1
	movwf	(printf@integ+1)^080h
	bcf	status, 5	;RP0=0, select bank0
	movf	(2+(?_scale)),w
	bsf	status, 5	;RP0=1, select bank1
	movwf	(printf@integ+2)^080h
	line	1129
	
l7318:	
	movf	(printf@fval)^080h,w
	bcf	status, 5	;RP0=0, select bank0
	movwf	(?__tdiv_to_l_)
	bsf	status, 5	;RP0=1, select bank1
	movf	(printf@fval+1)^080h,w
	bcf	status, 5	;RP0=0, select bank0
	movwf	(?__tdiv_to_l_+1)
	bsf	status, 5	;RP0=1, select bank1
	movf	(printf@fval+2)^080h,w
	bcf	status, 5	;RP0=0, select bank0
	movwf	(?__tdiv_to_l_+2)
	bsf	status, 5	;RP0=1, select bank1
	movf	(printf@integ)^080h,w
	bcf	status, 5	;RP0=0, select bank0
	movwf	0+(?__tdiv_to_l_)+03h
	bsf	status, 5	;RP0=1, select bank1
	movf	(printf@integ+1)^080h,w
	bcf	status, 5	;RP0=0, select bank0
	movwf	1+(?__tdiv_to_l_)+03h
	bsf	status, 5	;RP0=1, select bank1
	movf	(printf@integ+2)^080h,w
	bcf	status, 5	;RP0=0, select bank0
	movwf	2+(?__tdiv_to_l_)+03h
	fcall	__tdiv_to_l_
	movf	(3+(?__tdiv_to_l_)),w
	bsf	status, 5	;RP0=1, select bank1
	movwf	(_printf$3161+3)^080h
	bcf	status, 5	;RP0=0, select bank0
	movf	(2+(?__tdiv_to_l_)),w
	bsf	status, 5	;RP0=1, select bank1
	movwf	(_printf$3161+2)^080h
	bcf	status, 5	;RP0=0, select bank0
	movf	(1+(?__tdiv_to_l_)),w
	bsf	status, 5	;RP0=1, select bank1
	movwf	(_printf$3161+1)^080h
	bcf	status, 5	;RP0=0, select bank0
	movf	(0+(?__tdiv_to_l_)),w
	bsf	status, 5	;RP0=1, select bank1
	movwf	(_printf$3161)^080h

	
l7320:	
	movf	(_printf$3161+3)^080h,w
	movwf	(printf@_val+3)^080h
	movf	(_printf$3161+2)^080h,w
	movwf	(printf@_val+2)^080h
	movf	(_printf$3161+1)^080h,w
	movwf	(printf@_val+1)^080h
	movf	(_printf$3161)^080h,w
	movwf	(printf@_val)^080h

	line	1132
	
l7322:	
	clrf	(printf@fval)^080h
	clrf	(printf@fval+1)^080h
	clrf	(printf@fval+2)^080h
	line	1133
	goto	l7328
	line	1134
	
l7324:	
	bsf	status, 5	;RP0=1, select bank1
	bcf	status, 6	;RP1=0, select bank1
	movf	(printf@fval)^080h,w
	bcf	status, 5	;RP0=0, select bank0
	movwf	(?___fttol)
	bsf	status, 5	;RP0=1, select bank1
	movf	(printf@fval+1)^080h,w
	bcf	status, 5	;RP0=0, select bank0
	movwf	(?___fttol+1)
	bsf	status, 5	;RP0=1, select bank1
	movf	(printf@fval+2)^080h,w
	bcf	status, 5	;RP0=0, select bank0
	movwf	(?___fttol+2)
	fcall	___fttol
	movf	(3+(?___fttol)),w
	bsf	status, 5	;RP0=1, select bank1
	movwf	(printf@_val+3)^080h
	bcf	status, 5	;RP0=0, select bank0
	movf	(2+(?___fttol)),w
	bsf	status, 5	;RP0=1, select bank1
	movwf	(printf@_val+2)^080h
	bcf	status, 5	;RP0=0, select bank0
	movf	(1+(?___fttol)),w
	bsf	status, 5	;RP0=1, select bank1
	movwf	(printf@_val+1)^080h
	bcf	status, 5	;RP0=0, select bank0
	movf	(0+(?___fttol)),w
	bsf	status, 5	;RP0=1, select bank1
	movwf	(printf@_val)^080h

	line	1135
	movf	(printf@_val+3)^080h,w
	bcf	status, 5	;RP0=0, select bank0
	movwf	(?___lltoft+3)
	bsf	status, 5	;RP0=1, select bank1
	movf	(printf@_val+2)^080h,w
	bcf	status, 5	;RP0=0, select bank0
	movwf	(?___lltoft+2)
	bsf	status, 5	;RP0=1, select bank1
	movf	(printf@_val+1)^080h,w
	bcf	status, 5	;RP0=0, select bank0
	movwf	(?___lltoft+1)
	bsf	status, 5	;RP0=1, select bank1
	movf	(printf@_val)^080h,w
	bcf	status, 5	;RP0=0, select bank0
	movwf	(?___lltoft)

	fcall	___lltoft
	movf	(0+(?___lltoft)),w
	movwf	(?___ftsub)
	movf	(1+(?___lltoft)),w
	movwf	(?___ftsub+1)
	movf	(2+(?___lltoft)),w
	movwf	(?___ftsub+2)
	bsf	status, 5	;RP0=1, select bank1
	movf	(printf@fval)^080h,w
	bcf	status, 5	;RP0=0, select bank0
	movwf	0+(?___ftsub)+03h
	bsf	status, 5	;RP0=1, select bank1
	movf	(printf@fval+1)^080h,w
	bcf	status, 5	;RP0=0, select bank0
	movwf	1+(?___ftsub)+03h
	bsf	status, 5	;RP0=1, select bank1
	movf	(printf@fval+2)^080h,w
	bcf	status, 5	;RP0=0, select bank0
	movwf	2+(?___ftsub)+03h
	fcall	___ftsub
	movf	(0+(?___ftsub)),w
	bsf	status, 5	;RP0=1, select bank1
	movwf	(printf@fval)^080h
	bcf	status, 5	;RP0=0, select bank0
	movf	(1+(?___ftsub)),w
	bsf	status, 5	;RP0=1, select bank1
	movwf	(printf@fval+1)^080h
	bcf	status, 5	;RP0=0, select bank0
	movf	(2+(?___ftsub)),w
	bsf	status, 5	;RP0=1, select bank1
	movwf	(printf@fval+2)^080h
	line	1136
	
l7326:	
	clrf	(printf@exp)^080h
	clrf	(printf@exp+1)^080h
	line	1139
	
l7328:	
	clrf	(printf@c)^080h
	incf	(printf@c)^080h,f
	line	1140
	
l7334:	
	movf	(printf@c)^080h,w
	movwf	(??_printf+0)^080h+0
	clrc
	rlf	(??_printf+0)^080h+0,f
	clrc
	rlf	(??_printf+0)^080h+0,w
	addlw	low((_dpowers-__stringbase))
	movwf	fsr0
	fcall	stringdir
	movwf	((??_printf+1)^080h+0)
	fcall	stringdir
	movwf	((??_printf+1)^080h+0+1)
	fcall	stringdir
	movwf	((??_printf+1)^080h+0+2)
	fcall	stringdir
	movwf	((??_printf+1)^080h+0+3)
	movf	3+(??_printf+1)^080h+0,w
	subwf	(printf@_val+3)^080h,w
	skipz
	goto	u4355
	movf	2+(??_printf+1)^080h+0,w
	subwf	(printf@_val+2)^080h,w
	skipz
	goto	u4355
	movf	1+(??_printf+1)^080h+0,w
	subwf	(printf@_val+1)^080h,w
	skipz
	goto	u4355
	movf	0+(??_printf+1)^080h+0,w
	subwf	(printf@_val)^080h,w
u4355:
	skipnc
	goto	u4351
	goto	u4350
u4351:
	goto	l7338
u4350:
	goto	l7342
	line	1139
	
l7338:	
	incf	(printf@c)^080h,f
	
l7340:	
	movf	(printf@c)^080h,w
	xorlw	0Ah
	skipz
	goto	u4361
	goto	u4360
u4361:
	goto	l7334
u4360:
	line	1145
	
l7342:	
	movf	(printf@prec)^080h,w
	addwf	(printf@c)^080h,w
	movwf	(??_printf+0)^080h+0
	movf	(printf@prec+1)^080h,w
	skipnc
	incf	(printf@prec+1)^080h,w
	addlw	0
	btfsc	(printf@c)^080h,7
	addlw	0ffh
	movwf	(??_printf+0)^080h+0+1
	movf	(printf@exp)^080h,w
	addwf	0+(??_printf+0)^080h+0,w
	movwf	(??_printf+2)^080h+0
	movf	(printf@exp+1)^080h,w
	skipnc
	incf	(printf@exp+1)^080h,w
	addwf	1+(??_printf+0)^080h+0,w
	movwf	1+(??_printf+2)^080h+0
	movf	0+(??_printf+2)^080h+0,w
	subwf	(printf@width)^080h,f
	movf	1+(??_printf+2)^080h+0,w
	skipc
	decf	(printf@width+1)^080h,f
	subwf	(printf@width+1)^080h,f
	line	1150
	
l7344:	
	movf	(printf@prec+1)^080h,w
	iorwf	(printf@prec)^080h,w
	skipnz
	goto	u4371
	goto	u4370
u4371:
	goto	l7348
u4370:
	line	1151
	
l7346:	
	movlw	-1
	addwf	(printf@width)^080h,f
	skipc
	decf	(printf@width+1)^080h,f
	line	1152
	
l7348:	
	movf	(printf@flag)^080h,w
	andlw	03h
	btfsc	status,2
	goto	u4381
	goto	u4380
u4381:
	goto	l7356
u4380:
	line	1153
	
l7350:	
	movlw	-1
	bsf	status, 5	;RP0=1, select bank1
	addwf	(printf@width)^080h,f
	skipc
	decf	(printf@width+1)^080h,f
	goto	l7356
	line	1182
	
l7352:	
	movlw	(020h)
	fcall	_putch
	goto	l7350
	line	1181
	
l7356:	
	movf	(printf@width+1)^080h,w
	xorlw	80h
	movwf	btemp+1
	movlw	(high(01h))^80h
	subwf	btemp+1,w
	skipz
	goto	u4395
	movlw	low(01h)
	subwf	(printf@width)^080h,w
u4395:

	skipnc
	goto	u4391
	goto	u4390
u4391:
	goto	l7352
u4390:
	line	1189
	
l7358:	
	bsf	status, 5	;RP0=1, select bank1
	bcf	status, 6	;RP1=0, select bank1
	movf	(printf@flag)^080h,w
	andlw	03h
	btfsc	status,2
	goto	u4401
	goto	u4400
u4401:
	goto	l7364
u4400:
	line	1191
	
l7360:	
	movlw	(02Dh)
	fcall	_putch
	goto	l7364
	line	1201
	
l7362:	
	movlw	0Ah
	bcf	status, 5	;RP0=0, select bank0
	movwf	(?___llmod)
	clrf	(?___llmod+1)
	clrf	(?___llmod+2)
	clrf	(?___llmod+3)

	bsf	status, 5	;RP0=1, select bank1
	movf	(printf@c)^080h,w
	movwf	(??_printf+0)^080h+0
	clrc
	rlf	(??_printf+0)^080h+0,f
	clrc
	rlf	(??_printf+0)^080h+0,w
	addlw	low((_dpowers-__stringbase))
	movwf	fsr0
	fcall	stringdir
	bcf	status, 5	;RP0=0, select bank0
	movwf	(?___lldiv)
	fcall	stringdir
	movwf	(?___lldiv+1)
	fcall	stringdir
	movwf	(?___lldiv+2)
	fcall	stringdir
	movwf	(?___lldiv+3)
	bsf	status, 5	;RP0=1, select bank1
	movf	(printf@_val+3)^080h,w
	bcf	status, 5	;RP0=0, select bank0
	movwf	3+(?___lldiv)+04h
	bsf	status, 5	;RP0=1, select bank1
	movf	(printf@_val+2)^080h,w
	bcf	status, 5	;RP0=0, select bank0
	movwf	2+(?___lldiv)+04h
	bsf	status, 5	;RP0=1, select bank1
	movf	(printf@_val+1)^080h,w
	bcf	status, 5	;RP0=0, select bank0
	movwf	1+(?___lldiv)+04h
	bsf	status, 5	;RP0=1, select bank1
	movf	(printf@_val)^080h,w
	bcf	status, 5	;RP0=0, select bank0
	movwf	0+(?___lldiv)+04h

	fcall	___lldiv
	movf	(3+(?___lldiv)),w
	movwf	3+(?___llmod)+04h
	movf	(2+(?___lldiv)),w
	movwf	2+(?___llmod)+04h
	movf	(1+(?___lldiv)),w
	movwf	1+(?___llmod)+04h
	movf	(0+(?___lldiv)),w
	movwf	0+(?___llmod)+04h

	fcall	___llmod
	movf	0+(((0+(?___llmod)))),w
	addlw	030h
	fcall	_putch
	line	1197
	
l7364:	
	bsf	status, 5	;RP0=1, select bank1
	decf	(printf@c)^080h,f
	incf	((printf@c)^080h),w
	skipz
	goto	u4411
	goto	u4410
u4411:
	goto	l7362
u4410:
	goto	l7370
	line	1205
	
l7366:	
	movlw	(030h)
	fcall	_putch
	line	1206
	
l7368:	
	movlw	-1
	bsf	status, 5	;RP0=1, select bank1
	addwf	(printf@exp)^080h,f
	skipc
	decf	(printf@exp+1)^080h,f
	line	1204
	
l7370:	
	movf	(printf@exp+1)^080h,w
	xorlw	80h
	movwf	btemp+1
	movlw	(high(01h))^80h
	subwf	btemp+1,w
	skipz
	goto	u4425
	movlw	low(01h)
	subwf	(printf@exp)^080h,w
u4425:

	skipnc
	goto	u4421
	goto	u4420
u4421:
	goto	l7366
u4420:
	line	1208
	
l7372:	
	bsf	status, 5	;RP0=1, select bank1
	bcf	status, 6	;RP1=0, select bank1
	movf	(printf@prec+1)^080h,w
	xorlw	80h
	movwf	btemp+1
	movlw	(high(09h))^80h
	subwf	btemp+1,w
	skipz
	goto	u4435
	movlw	low(09h)
	subwf	(printf@prec)^080h,w
u4435:

	skipc
	goto	u4431
	goto	u4430
u4431:
	goto	l7376
u4430:
	line	1209
	
l7374:	
	movlw	(08h)
	bsf	status, 5	;RP0=1, select bank1
	bcf	status, 6	;RP1=0, select bank1
	movwf	(printf@c)^080h
	goto	l2240
	line	1211
	
l7376:	
	bsf	status, 5	;RP0=1, select bank1
	bcf	status, 6	;RP1=0, select bank1
	movf	(printf@prec)^080h,w
	movwf	(printf@c)^080h
	
l2240:	
	line	1212
	movf	(printf@c)^080h,w
	movwf	(??_printf+0)^080h+0
	clrf	(??_printf+0)^080h+0+1
	btfsc	(??_printf+0)^080h+0,7
	decf	(??_printf+0)^080h+0+1,f
	movf	0+(??_printf+0)^080h+0,w
	subwf	(printf@prec)^080h,f
	movf	1+(??_printf+0)^080h+0,w
	skipc
	decf	(printf@prec+1)^080h,f
	subwf	(printf@prec+1)^080h,f
	line	1216
	movf	(printf@c)^080h,w
	skipz
	goto	u4440
	goto	l2241
u4440:
	line	1218
	
l7378:	
	movlw	(02Eh)
	fcall	_putch
	
l2241:	
	line	1224
	bsf	status, 5	;RP0=1, select bank1
	movf	(printf@c)^080h,w
	fcall	_scale
	movf	(0+(?_scale)),w
	movwf	0+(?___ftmul)+03h
	movf	(1+(?_scale)),w
	movwf	1+(?___ftmul)+03h
	movf	(2+(?_scale)),w
	movwf	2+(?___ftmul)+03h
	bsf	status, 5	;RP0=1, select bank1
	movf	(printf@fval)^080h,w
	bcf	status, 5	;RP0=0, select bank0
	movwf	(?___ftmul)
	bsf	status, 5	;RP0=1, select bank1
	movf	(printf@fval+1)^080h,w
	bcf	status, 5	;RP0=0, select bank0
	movwf	(?___ftmul+1)
	bsf	status, 5	;RP0=1, select bank1
	movf	(printf@fval+2)^080h,w
	bcf	status, 5	;RP0=0, select bank0
	movwf	(?___ftmul+2)
	fcall	___ftmul
	movf	(0+(?___ftmul)),w
	movwf	(?___fttol)
	movf	(1+(?___ftmul)),w
	movwf	(?___fttol+1)
	movf	(2+(?___ftmul)),w
	movwf	(?___fttol+2)
	fcall	___fttol
	movf	(3+(?___fttol)),w
	bsf	status, 5	;RP0=1, select bank1
	movwf	(printf@_val+3)^080h
	bcf	status, 5	;RP0=0, select bank0
	movf	(2+(?___fttol)),w
	bsf	status, 5	;RP0=1, select bank1
	movwf	(printf@_val+2)^080h
	bcf	status, 5	;RP0=0, select bank0
	movf	(1+(?___fttol)),w
	bsf	status, 5	;RP0=1, select bank1
	movwf	(printf@_val+1)^080h
	bcf	status, 5	;RP0=0, select bank0
	movf	(0+(?___fttol)),w
	bsf	status, 5	;RP0=1, select bank1
	movwf	(printf@_val)^080h

	line	1225
	goto	l7382
	line	1226
	
l7380:	
	movlw	0Ah
	bcf	status, 5	;RP0=0, select bank0
	movwf	(?___llmod)
	clrf	(?___llmod+1)
	clrf	(?___llmod+2)
	clrf	(?___llmod+3)

	bsf	status, 5	;RP0=1, select bank1
	movf	(printf@c)^080h,w
	movwf	(??_printf+0)^080h+0
	clrc
	rlf	(??_printf+0)^080h+0,f
	clrc
	rlf	(??_printf+0)^080h+0,w
	addlw	low((_dpowers-__stringbase))
	movwf	fsr0
	fcall	stringdir
	bcf	status, 5	;RP0=0, select bank0
	movwf	(?___lldiv)
	fcall	stringdir
	movwf	(?___lldiv+1)
	fcall	stringdir
	movwf	(?___lldiv+2)
	fcall	stringdir
	movwf	(?___lldiv+3)
	bsf	status, 5	;RP0=1, select bank1
	movf	(printf@_val+3)^080h,w
	bcf	status, 5	;RP0=0, select bank0
	movwf	3+(?___lldiv)+04h
	bsf	status, 5	;RP0=1, select bank1
	movf	(printf@_val+2)^080h,w
	bcf	status, 5	;RP0=0, select bank0
	movwf	2+(?___lldiv)+04h
	bsf	status, 5	;RP0=1, select bank1
	movf	(printf@_val+1)^080h,w
	bcf	status, 5	;RP0=0, select bank0
	movwf	1+(?___lldiv)+04h
	bsf	status, 5	;RP0=1, select bank1
	movf	(printf@_val)^080h,w
	bcf	status, 5	;RP0=0, select bank0
	movwf	0+(?___lldiv)+04h

	fcall	___lldiv
	movf	(3+(?___lldiv)),w
	movwf	3+(?___llmod)+04h
	movf	(2+(?___lldiv)),w
	movwf	2+(?___llmod)+04h
	movf	(1+(?___lldiv)),w
	movwf	1+(?___llmod)+04h
	movf	(0+(?___lldiv)),w
	movwf	0+(?___llmod)+04h

	fcall	___llmod
	movf	0+(((0+(?___llmod)))),w
	addlw	030h
	fcall	_putch
	line	1227
	bsf	status, 5	;RP0=1, select bank1
	movf	(printf@c)^080h,w
	movwf	(??_printf+0)^080h+0
	clrc
	rlf	(??_printf+0)^080h+0,f
	clrc
	rlf	(??_printf+0)^080h+0,w
	addlw	low((_dpowers-__stringbase))
	movwf	fsr0
	fcall	stringdir
	bcf	status, 5	;RP0=0, select bank0
	movwf	(?___llmod)
	fcall	stringdir
	movwf	(?___llmod+1)
	fcall	stringdir
	movwf	(?___llmod+2)
	fcall	stringdir
	movwf	(?___llmod+3)
	bsf	status, 5	;RP0=1, select bank1
	movf	(printf@_val+3)^080h,w
	bcf	status, 5	;RP0=0, select bank0
	movwf	3+(?___llmod)+04h
	bsf	status, 5	;RP0=1, select bank1
	movf	(printf@_val+2)^080h,w
	bcf	status, 5	;RP0=0, select bank0
	movwf	2+(?___llmod)+04h
	bsf	status, 5	;RP0=1, select bank1
	movf	(printf@_val+1)^080h,w
	bcf	status, 5	;RP0=0, select bank0
	movwf	1+(?___llmod)+04h
	bsf	status, 5	;RP0=1, select bank1
	movf	(printf@_val)^080h,w
	bcf	status, 5	;RP0=0, select bank0
	movwf	0+(?___llmod)+04h

	fcall	___llmod
	movf	(3+(?___llmod)),w
	bsf	status, 5	;RP0=1, select bank1
	movwf	(printf@_val+3)^080h
	bcf	status, 5	;RP0=0, select bank0
	movf	(2+(?___llmod)),w
	bsf	status, 5	;RP0=1, select bank1
	movwf	(printf@_val+2)^080h
	bcf	status, 5	;RP0=0, select bank0
	movf	(1+(?___llmod)),w
	bsf	status, 5	;RP0=1, select bank1
	movwf	(printf@_val+1)^080h
	bcf	status, 5	;RP0=0, select bank0
	movf	(0+(?___llmod)),w
	bsf	status, 5	;RP0=1, select bank1
	movwf	(printf@_val)^080h

	line	1225
	
l7382:	
	decf	(printf@c)^080h,f
	incf	((printf@c)^080h),w
	skipz
	goto	u4451
	goto	u4450
u4451:
	goto	l7380
u4450:
	goto	l7388
	line	1231
	
l7384:	
	movlw	(030h)
	fcall	_putch
	line	1232
	
l7386:	
	movlw	-1
	bsf	status, 5	;RP0=1, select bank1
	addwf	(printf@prec)^080h,f
	skipc
	decf	(printf@prec+1)^080h,f
	line	1230
	
l7388:	
	movf	((printf@prec+1)^080h),w
	iorwf	((printf@prec)^080h),w
	skipz
	goto	u4461
	goto	u4460
u4461:
	goto	l7384
u4460:
	goto	l7434
	line	1285
	
l7390:	
	movf	((printf@prec+1)^080h),w
	iorwf	((printf@prec)^080h),w
	skipz
	goto	u4471
	goto	u4470
u4471:
	goto	l7396
u4470:
	
l7392:	
	movf	(printf@_val+3)^080h,w
	iorwf	(printf@_val+2)^080h,w
	iorwf	(printf@_val+1)^080h,w
	iorwf	(printf@_val)^080h,w
	skipz
	goto	u4481
	goto	u4480
u4481:
	goto	l7396
u4480:
	line	1286
	
l7394:	
	incf	(printf@prec)^080h,f
	skipnz
	incf	(printf@prec+1)^080h,f
	line	1334
	
l7396:	
	movf	(printf@c)^080h,w
	movwf	(??_printf+0)^080h+0
	clrf	(??_printf+0)^080h+0+1
	btfsc	(??_printf+0)^080h+0,7
	decf	(??_printf+0)^080h+0+1,f
	movf	1+(??_printf+0)^080h+0,w
	xorlw	80h
	movwf	(??_printf+2)^080h+0
	movf	(printf@prec+1)^080h,w
	xorlw	80h
	subwf	(??_printf+2)^080h+0,w
	skipz
	goto	u4495
	movf	(printf@prec)^080h,w
	subwf	0+(??_printf+0)^080h+0,w
u4495:

	skipnc
	goto	u4491
	goto	u4490
u4491:
	goto	l7400
u4490:
	line	1335
	
l7398:	
	bsf	status, 5	;RP0=1, select bank1
	bcf	status, 6	;RP1=0, select bank1
	movf	(printf@prec)^080h,w
	movwf	(printf@c)^080h
	goto	l7404
	line	1336
	
l7400:	
	bsf	status, 5	;RP0=1, select bank1
	bcf	status, 6	;RP1=0, select bank1
	movf	(printf@c)^080h,w
	movwf	(??_printf+0)^080h+0
	clrf	(??_printf+0)^080h+0+1
	btfsc	(??_printf+0)^080h+0,7
	decf	(??_printf+0)^080h+0+1,f
	movf	(printf@prec+1)^080h,w
	xorlw	80h
	movwf	(??_printf+2)^080h+0
	movf	1+(??_printf+0)^080h+0,w
	xorlw	80h
	subwf	(??_printf+2)^080h+0,w
	skipz
	goto	u4505
	movf	0+(??_printf+0)^080h+0,w
	subwf	(printf@prec)^080h,w
u4505:

	skipnc
	goto	u4501
	goto	u4500
u4501:
	goto	l7404
u4500:
	line	1337
	
l7402:	
	bsf	status, 5	;RP0=1, select bank1
	bcf	status, 6	;RP1=0, select bank1
	movf	(printf@c)^080h,w
	movwf	(printf@prec)^080h
	clrf	(printf@prec+1)^080h
	btfsc	(printf@prec)^080h,7
	decf	(printf@prec+1)^080h,f
	line	1340
	
l7404:	
	bsf	status, 5	;RP0=1, select bank1
	bcf	status, 6	;RP1=0, select bank1
	movf	(printf@width+1)^080h,w
	iorwf	(printf@width)^080h,w
	skipnz
	goto	u4511
	goto	u4510
u4511:
	goto	l7410
u4510:
	
l7406:	
	movf	(printf@flag)^080h,w
	andlw	03h
	btfsc	status,2
	goto	u4521
	goto	u4520
u4521:
	goto	l7410
u4520:
	line	1341
	
l7408:	
	movlw	-1
	addwf	(printf@width)^080h,f
	skipc
	decf	(printf@width+1)^080h,f
	line	1343
	
l7410:	
	btfss	(printf@flag+1)^080h,(14)&7
	goto	u4531
	goto	u4530
u4531:
	goto	l7418
u4530:
	line	1344
	
l7412:	
	movf	(printf@prec+1)^080h,w
	xorlw	80h
	movwf	(??_printf+0)^080h+0
	movf	(printf@width+1)^080h,w
	xorlw	80h
	subwf	(??_printf+0)^080h+0,w
	skipz
	goto	u4545
	movf	(printf@width)^080h,w
	subwf	(printf@prec)^080h,w
u4545:

	skipnc
	goto	u4541
	goto	u4540
u4541:
	goto	l7416
u4540:
	line	1345
	
l7414:	
	bsf	status, 5	;RP0=1, select bank1
	bcf	status, 6	;RP1=0, select bank1
	movf	(printf@prec)^080h,w
	subwf	(printf@width)^080h,f
	movf	(printf@prec+1)^080h,w
	skipc
	decf	(printf@width+1)^080h,f
	subwf	(printf@width+1)^080h,f
	goto	l7418
	line	1347
	
l7416:	
	bsf	status, 5	;RP0=1, select bank1
	bcf	status, 6	;RP1=0, select bank1
	clrf	(printf@width)^080h
	clrf	(printf@width+1)^080h
	line	1376
	
l7418:	
	movf	(printf@c)^080h,w
	movwf	(??_printf+0)^080h+0
	clrf	(??_printf+0)^080h+0+1
	btfsc	(??_printf+0)^080h+0,7
	decf	(??_printf+0)^080h+0+1,f
	movf	1+(??_printf+0)^080h+0,w
	xorlw	80h
	movwf	(??_printf+2)^080h+0
	movf	(printf@width+1)^080h,w
	xorlw	80h
	subwf	(??_printf+2)^080h+0,w
	skipz
	goto	u4555
	movf	(printf@width)^080h,w
	subwf	0+(??_printf+0)^080h+0,w
u4555:

	skipnc
	goto	u4551
	goto	u4550
u4551:
	goto	l7422
u4550:
	line	1377
	
l7420:	
	bsf	status, 5	;RP0=1, select bank1
	bcf	status, 6	;RP1=0, select bank1
	movf	(printf@c)^080h,w
	movwf	(??_printf+0)^080h+0
	clrf	(??_printf+0)^080h+0+1
	btfsc	(??_printf+0)^080h+0,7
	decf	(??_printf+0)^080h+0+1,f
	movf	0+(??_printf+0)^080h+0,w
	subwf	(printf@width)^080h,f
	movf	1+(??_printf+0)^080h+0,w
	skipc
	decf	(printf@width+1)^080h,f
	subwf	(printf@width+1)^080h,f
	goto	l7424
	line	1379
	
l7422:	
	bsf	status, 5	;RP0=1, select bank1
	bcf	status, 6	;RP1=0, select bank1
	clrf	(printf@width)^080h
	clrf	(printf@width+1)^080h
	line	1423
	
l7424:	
	movf	(printf@width+1)^080h,w
	iorwf	(printf@width)^080h,w
	skipnz
	goto	u4561
	goto	u4560
u4561:
	goto	l7430
u4560:
	line	1425
	
l7426:	
	movlw	(020h)
	fcall	_putch
	line	1426
	
l7428:	
	movlw	-1
	bsf	status, 5	;RP0=1, select bank1
	addwf	(printf@width)^080h,f
	skipc
	decf	(printf@width+1)^080h,f
	movf	(((printf@width+1)^080h)),w
	iorwf	(((printf@width)^080h)),w
	skipz
	goto	u4571
	goto	u4570
u4571:
	goto	l7426
u4570:
	line	1433
	
l7430:	
	movf	(printf@flag)^080h,w
	andlw	03h
	btfsc	status,2
	goto	u4581
	goto	u4580
u4581:
	goto	l7434
u4580:
	line	1434
	
l7432:	
	movlw	(02Dh)
	fcall	_putch
	line	540
	
l7434:	
	bsf	status, 5	;RP0=1, select bank1
	movf	(printf@f)^080h,w
	incf	(printf@f)^080h,f
	movwf	fsr0
	fcall	stringdir
	movwf	(printf@c)^080h
	movf	((printf@c)^080h),f
	skipz
	goto	u4591
	goto	u4590
u4591:
	goto	l7210
u4590:
	line	1533
	
l2263:	
	return
	opt stack 0
GLOBAL	__end_of_printf
	__end_of_printf:
;; =============== function _printf ends ============

	signat	_printf,602
	global	_putch
psect	text536,local,class=CODE,delta=2
global __ptext536
__ptext536:

;; *************** function _putch *****************
;; Defined at:
;;		line 52 in file "C:\Online Class\HK6\Practice_Micro\tmr0 counter\tmr0 ct.c"
;; Parameters:    Size  Location     Type
;;  ki_tu           1    wreg     unsigned char 
;; Auto vars:     Size  Location     Type
;;  ki_tu           1   17[BANK0 ] unsigned char 
;; Return value:  Size  Location     Type
;;		None               void
;; Registers used:
;;		wreg, fsr0l, fsr0h, status,2, status,0, pclath, cstack
;; Tracked objects:
;;		On entry : 0/20
;;		On exit  : 60/0
;;		Unchanged: 0/0
;; Data sizes:     COMMON   BANK0   BANK1   BANK3   BANK2
;;      Params:         0       0       0       0       0
;;      Locals:         0       1       0       0       0
;;      Temps:          0       0       0       0       0
;;      Totals:         0       1       0       0       0
;;Total ram usage:        1 bytes
;; Hardware stack levels used:    1
;; Hardware stack levels required when called:    6
;; This function calls:
;;		_lcd_putc
;; This function is called by:
;;		_printf
;; This function uses a non-reentrant model
;;
psect	text536
	file	"C:\Online Class\HK6\Practice_Micro\tmr0 counter\tmr0 ct.c"
	line	52
	global	__size_of_putch
	__size_of_putch	equ	__end_of_putch-_putch
	
_putch:	
	opt	stack 0
; Regs used in _putch: [wreg-fsr0h+status,2+status,0+pclath+cstack]
;putch@ki_tu stored from wreg
	bcf	status, 5	;RP0=0, select bank0
	bcf	status, 6	;RP1=0, select bank0
	movwf	(putch@ki_tu)
	line	53
	
l7206:	
;tmr0 ct.c: 53: lcd_putc(ki_tu);
	movf	(putch@ki_tu),w
	fcall	_lcd_putc
	line	54
	
l1051:	
	return
	opt stack 0
GLOBAL	__end_of_putch
	__end_of_putch:
;; =============== function _putch ends ============

	signat	_putch,4216
	global	_lcd_putc
psect	text537,local,class=CODE,delta=2
global __ptext537
__ptext537:

;; *************** function _lcd_putc *****************
;; Defined at:
;;		line 143 in file "C:\Online Class\HK6\Practice_Micro\tmr0 counter\lcd(16).c"
;; Parameters:    Size  Location     Type
;;  c               1    wreg     unsigned char 
;; Auto vars:     Size  Location     Type
;;  c               1   16[BANK0 ] unsigned char 
;; Return value:  Size  Location     Type
;;		None               void
;; Registers used:
;;		wreg, fsr0l, fsr0h, status,2, status,0, pclath, cstack
;; Tracked objects:
;;		On entry : 60/0
;;		On exit  : 60/0
;;		Unchanged: 0/0
;; Data sizes:     COMMON   BANK0   BANK1   BANK3   BANK2
;;      Params:         0       0       0       0       0
;;      Locals:         0       1       0       0       0
;;      Temps:          0       0       0       0       0
;;      Totals:         0       1       0       0       0
;;Total ram usage:        1 bytes
;; Hardware stack levels used:    1
;; Hardware stack levels required when called:    5
;; This function calls:
;;		_lcd_put_byte
;;		_lcd_busy
;;		_lcd_gotoxy
;;		_isprint
;; This function is called by:
;;		_putch
;; This function uses a non-reentrant model
;;
psect	text537
	file	"C:\Online Class\HK6\Practice_Micro\tmr0 counter\lcd(16).c"
	line	143
	global	__size_of_lcd_putc
	__size_of_lcd_putc	equ	__end_of_lcd_putc-_lcd_putc
	
_lcd_putc:	
	opt	stack 0
; Regs used in _lcd_putc: [wreg-fsr0h+status,2+status,0+pclath+cstack]
;lcd_putc@c stored from wreg
	movwf	(lcd_putc@c)
	line	144
	
l7188:	
;lcd(16).c: 144: switch(c){
	goto	l7204
	line	146
	
l7190:	
;lcd(16).c: 146: lcd_put_byte(0, 1);
	clrf	(?_lcd_put_byte)
	incf	(?_lcd_put_byte),f
	movlw	(0)
	fcall	_lcd_put_byte
	line	147
;lcd(16).c: 147: while(lcd_busy());
	
l7192:	
	fcall	_lcd_busy
	iorlw	0
	skipz
	goto	u4131
	goto	u4130
u4131:
	goto	l7192
u4130:
	goto	l2137
	line	150
	
l7194:	
;lcd(16).c: 150: lcd_gotoxy(0, 1);
	clrf	(?_lcd_gotoxy)
	incf	(?_lcd_gotoxy),f
	movlw	(0)
	fcall	_lcd_gotoxy
	line	151
;lcd(16).c: 151: break;
	goto	l2137
	line	153
	
l7196:	
;lcd(16).c: 153: if(isprint(c)){
	movf	(lcd_putc@c),w
	fcall	_isprint
	btfss	status,0
	goto	u4141
	goto	u4140
u4141:
	goto	l2137
u4140:
	line	154
	
l7198:	
;lcd(16).c: 154: lcd_put_byte(1, c);
	movf	(lcd_putc@c),w
	movwf	(?_lcd_put_byte)
	movlw	(01h)
	fcall	_lcd_put_byte
	line	155
;lcd(16).c: 155: while(lcd_busy());
	
l7200:	
	fcall	_lcd_busy
	iorlw	0
	skipz
	goto	u4151
	goto	u4150
u4151:
	goto	l7200
u4150:
	goto	l2137
	line	144
	
l7204:	
	movf	(lcd_putc@c),w
	; Switch size 1, requested type "space"
; Number of cases is 2, Range of values is 10 to 12
; switch strategies available:
; Name         Instructions Cycles
; simple_byte            7     4 (average)
; direct_byte           20    11 (fixed)
; jumptable            263     9 (fixed)
;	Chosen strategy is simple_byte

	opt asmopt_off
	xorlw	10^0	; case 10
	skipnz
	goto	l7194
	xorlw	12^10	; case 12
	skipnz
	goto	l7190
	goto	l7196
	opt asmopt_on

	line	159
	
l2137:	
	return
	opt stack 0
GLOBAL	__end_of_lcd_putc
	__end_of_lcd_putc:
;; =============== function _lcd_putc ends ============

	signat	_lcd_putc,4216
	global	___ftsub
psect	text538,local,class=CODE,delta=2
global __ptext538
__ptext538:

;; *************** function ___ftsub *****************
;; Defined at:
;;		line 17 in file "C:\Program Files (x86)\HI-TECH Software\PICC\9.83\sources\ftsub.c"
;; Parameters:    Size  Location     Type
;;  f2              3   62[BANK0 ] float 
;;  f1              3   65[BANK0 ] float 
;; Auto vars:     Size  Location     Type
;;		None
;; Return value:  Size  Location     Type
;;                  3   62[BANK0 ] float 
;; Registers used:
;;		wreg, status,2, status,0, pclath, cstack
;; Tracked objects:
;;		On entry : 60/0
;;		On exit  : 60/0
;;		Unchanged: FFF9F/0
;; Data sizes:     COMMON   BANK0   BANK1   BANK3   BANK2
;;      Params:         0       6       0       0       0
;;      Locals:         0       0       0       0       0
;;      Temps:          0       0       0       0       0
;;      Totals:         0       6       0       0       0
;;Total ram usage:        6 bytes
;; Hardware stack levels used:    1
;; Hardware stack levels required when called:    5
;; This function calls:
;;		___ftadd
;; This function is called by:
;;		_main
;;		_printf
;; This function uses a non-reentrant model
;;
psect	text538
	file	"C:\Program Files (x86)\HI-TECH Software\PICC\9.83\sources\ftsub.c"
	line	17
	global	__size_of___ftsub
	__size_of___ftsub	equ	__end_of___ftsub-___ftsub
	
___ftsub:	
	opt	stack 1
; Regs used in ___ftsub: [wreg+status,2+status,0+pclath+cstack]
	line	18
	
l7182:	
	movlw	080h
	xorwf	(___ftsub@f2+2),f
	line	19
	
l7184:	
	movf	(___ftsub@f1),w
	movwf	(?___ftadd)
	movf	(___ftsub@f1+1),w
	movwf	(?___ftadd+1)
	movf	(___ftsub@f1+2),w
	movwf	(?___ftadd+2)
	movf	(___ftsub@f2),w
	movwf	0+(?___ftadd)+03h
	movf	(___ftsub@f2+1),w
	movwf	1+(?___ftadd)+03h
	movf	(___ftsub@f2+2),w
	movwf	2+(?___ftadd)+03h
	fcall	___ftadd
	movf	(0+(?___ftadd)),w
	movwf	(?___ftsub)
	movf	(1+(?___ftadd)),w
	movwf	(?___ftsub+1)
	movf	(2+(?___ftadd)),w
	movwf	(?___ftsub+2)
	line	20
	
l3349:	
	return
	opt stack 0
GLOBAL	__end_of___ftsub
	__end_of___ftsub:
;; =============== function ___ftsub ends ============

	signat	___ftsub,8315
	global	_scale
psect	text539,local,class=CODE,delta=2
global __ptext539
__ptext539:

;; *************** function _scale *****************
;; Defined at:
;;		line 422 in file "C:\Program Files (x86)\HI-TECH Software\PICC\9.83\lib\doprnt.c"
;; Parameters:    Size  Location     Type
;;  scl             1    wreg     char 
;; Auto vars:     Size  Location     Type
;;  scl             1   60[BANK0 ] char 
;; Return value:  Size  Location     Type
;;                  3   50[BANK0 ] char 
;; Registers used:
;;		wreg, fsr0l, fsr0h, status,2, status,0, pclath, cstack
;; Tracked objects:
;;		On entry : 60/20
;;		On exit  : 60/0
;;		Unchanged: FFF9F/0
;; Data sizes:     COMMON   BANK0   BANK1   BANK3   BANK2
;;      Params:         0       3       0       0       0
;;      Locals:         0       4       0       0       0
;;      Temps:          0       4       0       0       0
;;      Totals:         0      11       0       0       0
;;Total ram usage:       11 bytes
;; Hardware stack levels used:    1
;; Hardware stack levels required when called:    5
;; This function calls:
;;		___awmod
;;		___awdiv
;;		___ftmul
;;		___bmul
;; This function is called by:
;;		_printf
;; This function uses a non-reentrant model
;;
psect	text539
	file	"C:\Program Files (x86)\HI-TECH Software\PICC\9.83\sources\doprnt.c"
	line	422
	global	__size_of_scale
	__size_of_scale	equ	__end_of_scale-_scale
	
_scale:	
	opt	stack 1
; Regs used in _scale: [wreg-fsr0h+status,2+status,0+pclath+cstack]
;scale@scl stored from wreg
	line	424
	bcf	status, 5	;RP0=0, select bank0
	movwf	(scale@scl)
	
l7142:	
	btfss	(scale@scl),7
	goto	u4081
	goto	u4080
u4081:
	goto	l7164
u4080:
	line	425
	
l7144:	
	comf	(scale@scl),f
	incf	(scale@scl),f
	line	426
	
l7146:	
	movf	(scale@scl),w
	xorlw	80h
	addlw	-((06Eh)^80h)
	skipc
	goto	u4091
	goto	u4090
u4091:
	goto	l7154
u4090:
	line	427
	
l7148:	
	movlw	0Ah
	movwf	(?___awdiv)
	clrf	(?___awdiv+1)
	movf	(scale@scl),w
	movwf	0+(?___awmod)+02h
	clrf	1+(?___awmod)+02h
	btfsc	0+(?___awmod)+02h,7
	decf	1+(?___awmod)+02h,f
	movlw	064h
	movwf	(?___awmod)
	clrf	(?___awmod+1)
	fcall	___awmod
	movf	(1+(?___awmod)),w
	movwf	1+(?___awdiv)+02h
	movf	(0+(?___awmod)),w
	movwf	0+(?___awdiv)+02h
	fcall	___awdiv
	movf	(0+?___awdiv),w
	movwf	(??_scale+0)+0
	movf	(1+?___awdiv),w
	movwf	((??_scale+0)+0+1)
	movf	0+(??_scale+0)+0,w
	addwf	0+(??_scale+0)+0,w
	addwf	0+(??_scale+0)+0,w
	addlw	low((__npowers_-__stringbase)+01Bh)
	movwf	fsr0
	fcall	stringdir
	movwf	(?___ftmul)
	fcall	stringdir
	movwf	(?___ftmul+1)
	fcall	stringdir
	movwf	(?___ftmul+2)
	movlw	064h
	movwf	(?___awdiv)
	clrf	(?___awdiv+1)
	movf	(scale@scl),w
	movwf	0+(?___awdiv)+02h
	clrf	1+(?___awdiv)+02h
	btfsc	0+(?___awdiv)+02h,7
	decf	1+(?___awdiv)+02h,f
	fcall	___awdiv
	movf	(0+?___awdiv),w
	movwf	(??_scale+2)+0
	movf	(1+?___awdiv),w
	movwf	((??_scale+2)+0+1)
	movf	0+(??_scale+2)+0,w
	addwf	0+(??_scale+2)+0,w
	addwf	0+(??_scale+2)+0,w
	addlw	low((__npowers_-__stringbase)+036h)
	movwf	fsr0
	fcall	stringdir
	movwf	0+(?___ftmul)+03h
	fcall	stringdir
	movwf	1+(?___ftmul)+03h
	fcall	stringdir
	movwf	2+(?___ftmul)+03h
	fcall	___ftmul
	movf	(0+(?___ftmul)),w
	movwf	(_scale$4112)
	movf	(1+(?___ftmul)),w
	movwf	(_scale$4112+1)
	movf	(2+(?___ftmul)),w
	movwf	(_scale$4112+2)
	movlw	0Ah
	movwf	(?___awmod)
	clrf	(?___awmod+1)
	movf	(scale@scl),w
	movwf	0+(?___awmod)+02h
	clrf	1+(?___awmod)+02h
	btfsc	0+(?___awmod)+02h,7
	decf	1+(?___awmod)+02h,f
	fcall	___awmod
	movf	(0+?___awmod),w
	movwf	(??_scale+0)+0
	movf	(1+?___awmod),w
	movwf	((??_scale+0)+0+1)
	movf	0+(??_scale+0)+0,w
	addwf	0+(??_scale+0)+0,w
	addwf	0+(??_scale+0)+0,w
	addlw	low((__npowers_-__stringbase))
	movwf	fsr0
	fcall	stringdir
	movwf	(?___ftmul)
	fcall	stringdir
	movwf	(?___ftmul+1)
	fcall	stringdir
	movwf	(?___ftmul+2)
	movf	(_scale$4112),w
	movwf	0+(?___ftmul)+03h
	movf	(_scale$4112+1),w
	movwf	1+(?___ftmul)+03h
	movf	(_scale$4112+2),w
	movwf	2+(?___ftmul)+03h
	fcall	___ftmul
	movf	(0+(?___ftmul)),w
	movwf	(?_scale)
	movf	(1+(?___ftmul)),w
	movwf	(?_scale+1)
	movf	(2+(?___ftmul)),w
	movwf	(?_scale+2)
	goto	l2180
	line	428
	
l7154:	
	movf	(scale@scl),w
	xorlw	80h
	addlw	-((0Bh)^80h)
	skipc
	goto	u4101
	goto	u4100
u4101:
	goto	l7160
u4100:
	line	429
	
l7156:	
	movlw	0Ah
	movwf	(?___awmod)
	clrf	(?___awmod+1)
	movf	(scale@scl),w
	movwf	0+(?___awmod)+02h
	clrf	1+(?___awmod)+02h
	btfsc	0+(?___awmod)+02h,7
	decf	1+(?___awmod)+02h,f
	fcall	___awmod
	movf	(0+?___awmod),w
	movwf	(??_scale+0)+0
	movf	(1+?___awmod),w
	movwf	((??_scale+0)+0+1)
	movf	0+(??_scale+0)+0,w
	addwf	0+(??_scale+0)+0,w
	addwf	0+(??_scale+0)+0,w
	addlw	low((__npowers_-__stringbase))
	movwf	fsr0
	fcall	stringdir
	movwf	(?___ftmul)
	fcall	stringdir
	movwf	(?___ftmul+1)
	fcall	stringdir
	movwf	(?___ftmul+2)
	movlw	0Ah
	movwf	(?___awdiv)
	clrf	(?___awdiv+1)
	movf	(scale@scl),w
	movwf	0+(?___awdiv)+02h
	clrf	1+(?___awdiv)+02h
	btfsc	0+(?___awdiv)+02h,7
	decf	1+(?___awdiv)+02h,f
	fcall	___awdiv
	movf	(0+?___awdiv),w
	movwf	(??_scale+2)+0
	movf	(1+?___awdiv),w
	movwf	((??_scale+2)+0+1)
	movf	0+(??_scale+2)+0,w
	addwf	0+(??_scale+2)+0,w
	addwf	0+(??_scale+2)+0,w
	addlw	low((__npowers_-__stringbase)+01Bh)
	movwf	fsr0
	fcall	stringdir
	movwf	0+(?___ftmul)+03h
	fcall	stringdir
	movwf	1+(?___ftmul)+03h
	fcall	stringdir
	movwf	2+(?___ftmul)+03h
	fcall	___ftmul
	movf	(0+(?___ftmul)),w
	movwf	(?_scale)
	movf	(1+(?___ftmul)),w
	movwf	(?_scale+1)
	movf	(2+(?___ftmul)),w
	movwf	(?_scale+2)
	goto	l2180
	line	430
	
l7160:	
	movlw	(03h)
	movwf	(?___bmul)
	movf	(scale@scl),w
	fcall	___bmul
	addlw	low((__npowers_-__stringbase))
	movwf	fsr0
	fcall	stringdir
	movwf	(?_scale)
	fcall	stringdir
	movwf	(?_scale+1)
	fcall	stringdir
	movwf	(?_scale+2)
	goto	l2180
	line	432
	
l7164:	
	movf	(scale@scl),w
	xorlw	80h
	addlw	-((06Eh)^80h)
	skipc
	goto	u4111
	goto	u4110
u4111:
	goto	l7172
u4110:
	line	433
	
l7166:	
	movlw	0Ah
	movwf	(?___awdiv)
	clrf	(?___awdiv+1)
	movf	(scale@scl),w
	movwf	0+(?___awmod)+02h
	clrf	1+(?___awmod)+02h
	btfsc	0+(?___awmod)+02h,7
	decf	1+(?___awmod)+02h,f
	movlw	064h
	movwf	(?___awmod)
	clrf	(?___awmod+1)
	fcall	___awmod
	movf	(1+(?___awmod)),w
	movwf	1+(?___awdiv)+02h
	movf	(0+(?___awmod)),w
	movwf	0+(?___awdiv)+02h
	fcall	___awdiv
	movf	(0+?___awdiv),w
	movwf	(??_scale+0)+0
	movf	(1+?___awdiv),w
	movwf	((??_scale+0)+0+1)
	movf	0+(??_scale+0)+0,w
	addwf	0+(??_scale+0)+0,w
	addwf	0+(??_scale+0)+0,w
	addlw	low((__powers_-__stringbase)+01Bh)
	movwf	fsr0
	fcall	stringdir
	movwf	(?___ftmul)
	fcall	stringdir
	movwf	(?___ftmul+1)
	fcall	stringdir
	movwf	(?___ftmul+2)
	movlw	064h
	movwf	(?___awdiv)
	clrf	(?___awdiv+1)
	movf	(scale@scl),w
	movwf	0+(?___awdiv)+02h
	clrf	1+(?___awdiv)+02h
	btfsc	0+(?___awdiv)+02h,7
	decf	1+(?___awdiv)+02h,f
	fcall	___awdiv
	movf	(0+?___awdiv),w
	movwf	(??_scale+2)+0
	movf	(1+?___awdiv),w
	movwf	((??_scale+2)+0+1)
	movf	0+(??_scale+2)+0,w
	addwf	0+(??_scale+2)+0,w
	addwf	0+(??_scale+2)+0,w
	addlw	low((__powers_-__stringbase)+036h)
	movwf	fsr0
	fcall	stringdir
	movwf	0+(?___ftmul)+03h
	fcall	stringdir
	movwf	1+(?___ftmul)+03h
	fcall	stringdir
	movwf	2+(?___ftmul)+03h
	fcall	___ftmul
	movf	(0+(?___ftmul)),w
	movwf	(_scale$4112)
	movf	(1+(?___ftmul)),w
	movwf	(_scale$4112+1)
	movf	(2+(?___ftmul)),w
	movwf	(_scale$4112+2)
	movlw	0Ah
	movwf	(?___awmod)
	clrf	(?___awmod+1)
	movf	(scale@scl),w
	movwf	0+(?___awmod)+02h
	clrf	1+(?___awmod)+02h
	btfsc	0+(?___awmod)+02h,7
	decf	1+(?___awmod)+02h,f
	fcall	___awmod
	movf	(0+?___awmod),w
	movwf	(??_scale+0)+0
	movf	(1+?___awmod),w
	movwf	((??_scale+0)+0+1)
	movf	0+(??_scale+0)+0,w
	addwf	0+(??_scale+0)+0,w
	addwf	0+(??_scale+0)+0,w
	addlw	low((__powers_-__stringbase))
	movwf	fsr0
	fcall	stringdir
	movwf	(?___ftmul)
	fcall	stringdir
	movwf	(?___ftmul+1)
	fcall	stringdir
	movwf	(?___ftmul+2)
	movf	(_scale$4112),w
	movwf	0+(?___ftmul)+03h
	movf	(_scale$4112+1),w
	movwf	1+(?___ftmul)+03h
	movf	(_scale$4112+2),w
	movwf	2+(?___ftmul)+03h
	fcall	___ftmul
	movf	(0+(?___ftmul)),w
	movwf	(?_scale)
	movf	(1+(?___ftmul)),w
	movwf	(?_scale+1)
	movf	(2+(?___ftmul)),w
	movwf	(?_scale+2)
	goto	l2180
	line	434
	
l7172:	
	movf	(scale@scl),w
	xorlw	80h
	addlw	-((0Bh)^80h)
	skipc
	goto	u4121
	goto	u4120
u4121:
	goto	l7178
u4120:
	line	435
	
l7174:	
	movlw	0Ah
	movwf	(?___awmod)
	clrf	(?___awmod+1)
	movf	(scale@scl),w
	movwf	0+(?___awmod)+02h
	clrf	1+(?___awmod)+02h
	btfsc	0+(?___awmod)+02h,7
	decf	1+(?___awmod)+02h,f
	fcall	___awmod
	movf	(0+?___awmod),w
	movwf	(??_scale+0)+0
	movf	(1+?___awmod),w
	movwf	((??_scale+0)+0+1)
	movf	0+(??_scale+0)+0,w
	addwf	0+(??_scale+0)+0,w
	addwf	0+(??_scale+0)+0,w
	addlw	low((__powers_-__stringbase))
	movwf	fsr0
	fcall	stringdir
	movwf	(?___ftmul)
	fcall	stringdir
	movwf	(?___ftmul+1)
	fcall	stringdir
	movwf	(?___ftmul+2)
	movlw	0Ah
	movwf	(?___awdiv)
	clrf	(?___awdiv+1)
	movf	(scale@scl),w
	movwf	0+(?___awdiv)+02h
	clrf	1+(?___awdiv)+02h
	btfsc	0+(?___awdiv)+02h,7
	decf	1+(?___awdiv)+02h,f
	fcall	___awdiv
	movf	(0+?___awdiv),w
	movwf	(??_scale+2)+0
	movf	(1+?___awdiv),w
	movwf	((??_scale+2)+0+1)
	movf	0+(??_scale+2)+0,w
	addwf	0+(??_scale+2)+0,w
	addwf	0+(??_scale+2)+0,w
	addlw	low((__powers_-__stringbase)+01Bh)
	movwf	fsr0
	fcall	stringdir
	movwf	0+(?___ftmul)+03h
	fcall	stringdir
	movwf	1+(?___ftmul)+03h
	fcall	stringdir
	movwf	2+(?___ftmul)+03h
	fcall	___ftmul
	movf	(0+(?___ftmul)),w
	movwf	(?_scale)
	movf	(1+(?___ftmul)),w
	movwf	(?_scale+1)
	movf	(2+(?___ftmul)),w
	movwf	(?_scale+2)
	goto	l2180
	line	436
	
l7178:	
	movlw	(03h)
	movwf	(?___bmul)
	movf	(scale@scl),w
	fcall	___bmul
	addlw	low((__powers_-__stringbase))
	movwf	fsr0
	fcall	stringdir
	movwf	(?_scale)
	fcall	stringdir
	movwf	(?_scale+1)
	fcall	stringdir
	movwf	(?_scale+2)
	line	437
	
l2180:	
	return
	opt stack 0
GLOBAL	__end_of_scale
	__end_of_scale:
;; =============== function _scale ends ============

	signat	_scale,4219
	global	_fround
psect	text540,local,class=CODE,delta=2
global __ptext540
__ptext540:

;; *************** function _fround *****************
;; Defined at:
;;		line 406 in file "C:\Program Files (x86)\HI-TECH Software\PICC\9.83\lib\doprnt.c"
;; Parameters:    Size  Location     Type
;;  prec            1    wreg     unsigned char 
;; Auto vars:     Size  Location     Type
;;  prec            1   71[BANK0 ] unsigned char 
;; Return value:  Size  Location     Type
;;                  3   62[BANK0 ] unsigned char 
;; Registers used:
;;		wreg, fsr0l, fsr0h, status,2, status,0, pclath, cstack
;; Tracked objects:
;;		On entry : 60/20
;;		On exit  : 60/0
;;		Unchanged: FFF9F/0
;; Data sizes:     COMMON   BANK0   BANK1   BANK3   BANK2
;;      Params:         0       3       0       0       0
;;      Locals:         0       7       0       0       0
;;      Temps:          0       0       0       0       0
;;      Totals:         0      10       0       0       0
;;Total ram usage:       10 bytes
;; Hardware stack levels used:    1
;; Hardware stack levels required when called:    5
;; This function calls:
;;		___lbmod
;;		___bmul
;;		___lbdiv
;;		___ftmul
;; This function is called by:
;;		_printf
;; This function uses a non-reentrant model
;;
psect	text540
	file	"C:\Program Files (x86)\HI-TECH Software\PICC\9.83\sources\doprnt.c"
	line	406
	global	__size_of_fround
	__size_of_fround	equ	__end_of_fround-_fround
	
_fround:	
	opt	stack 1
; Regs used in _fround: [wreg-fsr0h+status,2+status,0+pclath+cstack]
;fround@prec stored from wreg
	line	409
	bcf	status, 5	;RP0=0, select bank0
	movwf	(fround@prec)
	
l7120:	
	movlw	(06Eh)
	subwf	(fround@prec),w
	skipc
	goto	u4061
	goto	u4060
u4061:
	goto	l7130
u4060:
	line	410
	
l7122:	
	movlw	(03h)
	movwf	(?___bmul)
	movlw	(0Ah)
	movwf	(?___lbdiv)
	movlw	(064h)
	movwf	(?___lbmod)
	movf	(fround@prec),w
	fcall	___lbmod
	fcall	___lbdiv
	fcall	___bmul
	addlw	low((__npowers_-__stringbase)+01Bh)
	movwf	fsr0
	fcall	stringdir
	movwf	(?___ftmul)
	fcall	stringdir
	movwf	(?___ftmul+1)
	fcall	stringdir
	movwf	(?___ftmul+2)
	movlw	(03h)
	movwf	(?___bmul)
	movlw	(064h)
	movwf	(?___lbdiv)
	movf	(fround@prec),w
	fcall	___lbdiv
	fcall	___bmul
	addlw	low((__npowers_-__stringbase)+036h)
	movwf	fsr0
	fcall	stringdir
	movwf	0+(?___ftmul)+03h
	fcall	stringdir
	movwf	1+(?___ftmul)+03h
	fcall	stringdir
	movwf	2+(?___ftmul)+03h
	fcall	___ftmul
	movf	(0+(?___ftmul)),w
	movwf	(_fround$4110)
	movf	(1+(?___ftmul)),w
	movwf	(_fround$4110+1)
	movf	(2+(?___ftmul)),w
	movwf	(_fround$4110+2)
	movlw	(03h)
	movwf	(?___bmul)
	movlw	(0Ah)
	movwf	(?___lbmod)
	movf	(fround@prec),w
	fcall	___lbmod
	fcall	___bmul
	addlw	low((__npowers_-__stringbase))
	movwf	fsr0
	fcall	stringdir
	movwf	(?___ftmul)
	fcall	stringdir
	movwf	(?___ftmul+1)
	fcall	stringdir
	movwf	(?___ftmul+2)
	movf	(_fround$4110),w
	movwf	0+(?___ftmul)+03h
	movf	(_fround$4110+1),w
	movwf	1+(?___ftmul)+03h
	movf	(_fround$4110+2),w
	movwf	2+(?___ftmul)+03h
	fcall	___ftmul
	movf	(0+(?___ftmul)),w
	movwf	(_fround$4111)
	movf	(1+(?___ftmul)),w
	movwf	(_fround$4111+1)
	movf	(2+(?___ftmul)),w
	movwf	(_fround$4111+2)
	
l7124:	
	movlw	0x0
	movwf	(?___ftmul)
	movlw	0x0
	movwf	(?___ftmul+1)
	movlw	0x3f
	movwf	(?___ftmul+2)
	movf	(_fround$4111),w
	movwf	0+(?___ftmul)+03h
	movf	(_fround$4111+1),w
	movwf	1+(?___ftmul)+03h
	movf	(_fround$4111+2),w
	movwf	2+(?___ftmul)+03h
	fcall	___ftmul
	movf	(0+(?___ftmul)),w
	movwf	(?_fround)
	movf	(1+(?___ftmul)),w
	movwf	(?_fround+1)
	movf	(2+(?___ftmul)),w
	movwf	(?_fround+2)
	goto	l2173
	line	411
	
l7130:	
	movlw	(0Bh)
	subwf	(fround@prec),w
	skipc
	goto	u4071
	goto	u4070
u4071:
	goto	l7138
u4070:
	line	412
	
l7132:	
	movlw	(03h)
	movwf	(?___bmul)
	movlw	(0Ah)
	movwf	(?___lbmod)
	movf	(fround@prec),w
	fcall	___lbmod
	fcall	___bmul
	addlw	low((__npowers_-__stringbase))
	movwf	fsr0
	fcall	stringdir
	movwf	(?___ftmul)
	fcall	stringdir
	movwf	(?___ftmul+1)
	fcall	stringdir
	movwf	(?___ftmul+2)
	movlw	(03h)
	movwf	(?___bmul)
	movlw	(0Ah)
	movwf	(?___lbdiv)
	movf	(fround@prec),w
	fcall	___lbdiv
	fcall	___bmul
	addlw	low((__npowers_-__stringbase)+01Bh)
	movwf	fsr0
	fcall	stringdir
	movwf	0+(?___ftmul)+03h
	fcall	stringdir
	movwf	1+(?___ftmul)+03h
	fcall	stringdir
	movwf	2+(?___ftmul)+03h
	fcall	___ftmul
	movf	(0+(?___ftmul)),w
	movwf	(_fround$4110)
	movf	(1+(?___ftmul)),w
	movwf	(_fround$4110+1)
	movf	(2+(?___ftmul)),w
	movwf	(_fround$4110+2)
	
l7134:	
	movlw	0x0
	movwf	(?___ftmul)
	movlw	0x0
	movwf	(?___ftmul+1)
	movlw	0x3f
	movwf	(?___ftmul+2)
	movf	(_fround$4110),w
	movwf	0+(?___ftmul)+03h
	movf	(_fround$4110+1),w
	movwf	1+(?___ftmul)+03h
	movf	(_fround$4110+2),w
	movwf	2+(?___ftmul)+03h
	fcall	___ftmul
	movf	(0+(?___ftmul)),w
	movwf	(?_fround)
	movf	(1+(?___ftmul)),w
	movwf	(?_fround+1)
	movf	(2+(?___ftmul)),w
	movwf	(?_fround+2)
	goto	l2173
	line	413
	
l7138:	
	movlw	0x0
	movwf	(?___ftmul)
	movlw	0x0
	movwf	(?___ftmul+1)
	movlw	0x3f
	movwf	(?___ftmul+2)
	movlw	(03h)
	movwf	(?___bmul)
	movf	(fround@prec),w
	fcall	___bmul
	addlw	low((__npowers_-__stringbase))
	movwf	fsr0
	fcall	stringdir
	movwf	0+(?___ftmul)+03h
	fcall	stringdir
	movwf	1+(?___ftmul)+03h
	fcall	stringdir
	movwf	2+(?___ftmul)+03h
	fcall	___ftmul
	movf	(0+(?___ftmul)),w
	movwf	(?_fround)
	movf	(1+(?___ftmul)),w
	movwf	(?_fround+1)
	movf	(2+(?___ftmul)),w
	movwf	(?_fround+2)
	line	414
	
l2173:	
	return
	opt stack 0
GLOBAL	__end_of_fround
	__end_of_fround:
;; =============== function _fround ends ============

	signat	_fround,4219
	global	_lcd_gotoxy
psect	text541,local,class=CODE,delta=2
global __ptext541
__ptext541:

;; *************** function _lcd_gotoxy *****************
;; Defined at:
;;		line 162 in file "C:\Online Class\HK6\Practice_Micro\tmr0 counter\lcd(16).c"
;; Parameters:    Size  Location     Type
;;  col             1    wreg     unsigned char 
;;  row             1   13[BANK0 ] unsigned char 
;; Auto vars:     Size  Location     Type
;;  col             1   14[BANK0 ] unsigned char 
;;  address         1   15[BANK0 ] unsigned char 
;; Return value:  Size  Location     Type
;;		None               void
;; Registers used:
;;		wreg, status,2, status,0, pclath, cstack
;; Tracked objects:
;;		On entry : 60/0
;;		On exit  : 60/0
;;		Unchanged: 0/0
;; Data sizes:     COMMON   BANK0   BANK1   BANK3   BANK2
;;      Params:         0       1       0       0       0
;;      Locals:         0       2       0       0       0
;;      Temps:          0       0       0       0       0
;;      Totals:         0       3       0       0       0
;;Total ram usage:        3 bytes
;; Hardware stack levels used:    1
;; Hardware stack levels required when called:    4
;; This function calls:
;;		_lcd_put_byte
;;		_lcd_busy
;; This function is called by:
;;		_main
;;		_lcd_putc
;; This function uses a non-reentrant model
;;
psect	text541
	file	"C:\Online Class\HK6\Practice_Micro\tmr0 counter\lcd(16).c"
	line	162
	global	__size_of_lcd_gotoxy
	__size_of_lcd_gotoxy	equ	__end_of_lcd_gotoxy-_lcd_gotoxy
	
_lcd_gotoxy:	
	opt	stack 0
; Regs used in _lcd_gotoxy: [wreg+status,2+status,0+pclath+cstack]
;lcd_gotoxy@col stored from wreg
	line	165
	movwf	(lcd_gotoxy@col)
	
l7108:	
;lcd(16).c: 163: unsigned char address;
;lcd(16).c: 165: if(row!=0)
	movf	(lcd_gotoxy@row),w
	skipz
	goto	u4040
	goto	l7112
u4040:
	line	166
	
l7110:	
;lcd(16).c: 166: address=0x40;
	movlw	(040h)
	movwf	(lcd_gotoxy@address)
	goto	l7114
	line	168
	
l7112:	
;lcd(16).c: 167: else
;lcd(16).c: 168: address=0;
	clrf	(lcd_gotoxy@address)
	line	170
	
l7114:	
;lcd(16).c: 170: address += col;
	movf	(lcd_gotoxy@col),w
	addwf	(lcd_gotoxy@address),f
	line	171
	
l7116:	
;lcd(16).c: 171: lcd_put_byte(0,0x80|address);
	movf	(lcd_gotoxy@address),w
	iorlw	080h
	movwf	(?_lcd_put_byte)
	movlw	(0)
	fcall	_lcd_put_byte
	line	172
;lcd(16).c: 172: while(lcd_busy());
	
l7118:	
	fcall	_lcd_busy
	iorlw	0
	skipz
	goto	u4051
	goto	u4050
u4051:
	goto	l7118
u4050:
	line	173
	
l2145:	
	return
	opt stack 0
GLOBAL	__end_of_lcd_gotoxy
	__end_of_lcd_gotoxy:
;; =============== function _lcd_gotoxy ends ============

	signat	_lcd_gotoxy,8312
	global	_lcd_init
psect	text542,local,class=CODE,delta=2
global __ptext542
__ptext542:

;; *************** function _lcd_init *****************
;; Defined at:
;;		line 5 in file "C:\Online Class\HK6\Practice_Micro\tmr0 counter\lcd(16).c"
;; Parameters:    Size  Location     Type
;;		None
;; Auto vars:     Size  Location     Type
;;  i               1    0        unsigned char 
;; Return value:  Size  Location     Type
;;		None               void
;; Registers used:
;;		wreg, status,2, status,0, pclath, cstack
;; Tracked objects:
;;		On entry : 17F/0
;;		On exit  : 60/0
;;		Unchanged: 0/0
;; Data sizes:     COMMON   BANK0   BANK1   BANK3   BANK2
;;      Params:         0       0       0       0       0
;;      Locals:         0       0       0       0       0
;;      Temps:          0       3       0       0       0
;;      Totals:         0       3       0       0       0
;;Total ram usage:        3 bytes
;; Hardware stack levels used:    1
;; Hardware stack levels required when called:    4
;; This function calls:
;;		_lcd_put_byte
;;		_lcd_busy
;; This function is called by:
;;		_main
;; This function uses a non-reentrant model
;;
psect	text542
	file	"C:\Online Class\HK6\Practice_Micro\tmr0 counter\lcd(16).c"
	line	5
	global	__size_of_lcd_init
	__size_of_lcd_init	equ	__end_of_lcd_init-_lcd_init
	
_lcd_init:	
	opt	stack 3
; Regs used in _lcd_init: [wreg+status,2+status,0+pclath+cstack]
	line	7
	
l7070:	
;lcd(16).c: 6: unsigned char i;
;lcd(16).c: 7: TRISD3 = 0;
	bsf	status, 5	;RP0=1, select bank1
	bcf	(1091/8)^080h,(1091)&7
	line	8
;lcd(16).c: 8: TRISD1 = 0;
	bcf	(1089/8)^080h,(1089)&7
	line	9
;lcd(16).c: 9: TRISD2 = 0;
	bcf	(1090/8)^080h,(1090)&7
	line	10
;lcd(16).c: 10: TRISD4 = 0;
	bcf	(1092/8)^080h,(1092)&7
	line	11
;lcd(16).c: 11: TRISD5 = 0;
	bcf	(1093/8)^080h,(1093)&7
	line	12
;lcd(16).c: 12: TRISD6 = 0;
	bcf	(1094/8)^080h,(1094)&7
	line	13
;lcd(16).c: 13: TRISD7 = 0;
	bcf	(1095/8)^080h,(1095)&7
	line	14
;lcd(16).c: 14: RD3 = 0;
	bcf	status, 5	;RP0=0, select bank0
	bcf	(67/8),(67)&7
	line	15
;lcd(16).c: 15: RD1 = 0;
	bcf	(65/8),(65)&7
	line	16
;lcd(16).c: 16: RD2 = 0;
	bcf	(66/8),(66)&7
	line	18
	
l7072:	
;lcd(16).c: 18: _delay((unsigned long)((100)*(20000000/4000.0)));
	opt asmopt_off
movlw  3
movwf	((??_lcd_init+0)+0+2),f
movlw	138
movwf	((??_lcd_init+0)+0+1),f
	movlw	86
movwf	((??_lcd_init+0)+0),f
u4617:
	decfsz	((??_lcd_init+0)+0),f
	goto	u4617
	decfsz	((??_lcd_init+0)+0+1),f
	goto	u4617
	decfsz	((??_lcd_init+0)+0+2),f
	goto	u4617
	nop2
opt asmopt_on

	line	21
	
l7074:	
;lcd(16).c: 21: lcd_put_byte(0,0x30);
	movlw	(030h)
	bcf	status, 5	;RP0=0, select bank0
	bcf	status, 6	;RP1=0, select bank0
	movwf	(?_lcd_put_byte)
	movlw	(0)
	fcall	_lcd_put_byte
	line	22
	
l7076:	
;lcd(16).c: 22: _delay((unsigned long)((50)*(20000000/4000.0)));
	opt asmopt_off
movlw  2
movwf	((??_lcd_init+0)+0+2),f
movlw	69
movwf	((??_lcd_init+0)+0+1),f
	movlw	169
movwf	((??_lcd_init+0)+0),f
u4627:
	decfsz	((??_lcd_init+0)+0),f
	goto	u4627
	decfsz	((??_lcd_init+0)+0+1),f
	goto	u4627
	decfsz	((??_lcd_init+0)+0+2),f
	goto	u4627
	nop2
opt asmopt_on

	line	23
;lcd(16).c: 23: lcd_put_byte(0,0x30);
	movlw	(030h)
	bcf	status, 5	;RP0=0, select bank0
	bcf	status, 6	;RP1=0, select bank0
	movwf	(?_lcd_put_byte)
	movlw	(0)
	fcall	_lcd_put_byte
	line	24
	
l7078:	
;lcd(16).c: 24: _delay((unsigned long)((50)*(20000000/4000.0)));
	opt asmopt_off
movlw  2
movwf	((??_lcd_init+0)+0+2),f
movlw	69
movwf	((??_lcd_init+0)+0+1),f
	movlw	169
movwf	((??_lcd_init+0)+0),f
u4637:
	decfsz	((??_lcd_init+0)+0),f
	goto	u4637
	decfsz	((??_lcd_init+0)+0+1),f
	goto	u4637
	decfsz	((??_lcd_init+0)+0+2),f
	goto	u4637
	nop2
opt asmopt_on

	line	25
	
l7080:	
;lcd(16).c: 25: lcd_put_byte(0,0x32);
	movlw	(032h)
	bcf	status, 5	;RP0=0, select bank0
	bcf	status, 6	;RP1=0, select bank0
	movwf	(?_lcd_put_byte)
	movlw	(0)
	fcall	_lcd_put_byte
	line	26
;lcd(16).c: 26: _delay((unsigned long)((100)*(20000000/4000.0)));
	opt asmopt_off
movlw  3
movwf	((??_lcd_init+0)+0+2),f
movlw	138
movwf	((??_lcd_init+0)+0+1),f
	movlw	86
movwf	((??_lcd_init+0)+0),f
u4647:
	decfsz	((??_lcd_init+0)+0),f
	goto	u4647
	decfsz	((??_lcd_init+0)+0+1),f
	goto	u4647
	decfsz	((??_lcd_init+0)+0+2),f
	goto	u4647
	nop2
opt asmopt_on

	line	27
;lcd(16).c: 27: _delay((unsigned long)((100)*(20000000/4000.0)));
	opt asmopt_off
movlw  3
	bcf	status, 5	;RP0=0, select bank0
	bcf	status, 6	;RP1=0, select bank0
movwf	((??_lcd_init+0)+0+2),f
movlw	138
movwf	((??_lcd_init+0)+0+1),f
	movlw	86
movwf	((??_lcd_init+0)+0),f
u4657:
	decfsz	((??_lcd_init+0)+0),f
	goto	u4657
	decfsz	((??_lcd_init+0)+0+1),f
	goto	u4657
	decfsz	((??_lcd_init+0)+0+2),f
	goto	u4657
	nop2
opt asmopt_on

	line	28
;lcd(16).c: 28: _delay((unsigned long)((100)*(20000000/4000.0)));
	opt asmopt_off
movlw  3
	bcf	status, 5	;RP0=0, select bank0
	bcf	status, 6	;RP1=0, select bank0
movwf	((??_lcd_init+0)+0+2),f
movlw	138
movwf	((??_lcd_init+0)+0+1),f
	movlw	86
movwf	((??_lcd_init+0)+0),f
u4667:
	decfsz	((??_lcd_init+0)+0),f
	goto	u4667
	decfsz	((??_lcd_init+0)+0+1),f
	goto	u4667
	decfsz	((??_lcd_init+0)+0+2),f
	goto	u4667
	nop2
opt asmopt_on

	line	30
;lcd(16).c: 30: while(lcd_busy());
	
l7082:	
	fcall	_lcd_busy
	iorlw	0
	skipz
	goto	u3971
	goto	u3970
u3971:
	goto	l7082
u3970:
	line	31
	
l7084:	
;lcd(16).c: 31: lcd_put_byte(0,0b00101100 & 0b00111000);
	movlw	(028h)
	movwf	(?_lcd_put_byte)
	movlw	(0)
	fcall	_lcd_put_byte
	line	32
;lcd(16).c: 32: while(lcd_busy());
	
l7086:	
	fcall	_lcd_busy
	iorlw	0
	skipz
	goto	u3981
	goto	u3980
u3981:
	goto	l7086
u3980:
	line	34
	
l7088:	
;lcd(16).c: 34: lcd_put_byte(0,0b00001011&0b00001101&0b00001110);
	movlw	(08h)
	movwf	(?_lcd_put_byte)
	movlw	(0)
	fcall	_lcd_put_byte
	line	35
;lcd(16).c: 35: while(lcd_busy());
	
l7090:	
	fcall	_lcd_busy
	iorlw	0
	skipz
	goto	u3991
	goto	u3990
u3991:
	goto	l7090
u3990:
	line	36
	
l7092:	
;lcd(16).c: 36: lcd_put_byte(0,0b00001111&0b00001101&0b00001110);
	movlw	(0Ch)
	movwf	(?_lcd_put_byte)
	movlw	(0)
	fcall	_lcd_put_byte
	line	37
;lcd(16).c: 37: while(lcd_busy());
	
l7094:	
	fcall	_lcd_busy
	iorlw	0
	skipz
	goto	u4001
	goto	u4000
u4001:
	goto	l7094
u4000:
	line	39
	
l7096:	
;lcd(16).c: 39: lcd_put_byte(0,0x01);
	clrf	(?_lcd_put_byte)
	incf	(?_lcd_put_byte),f
	movlw	(0)
	fcall	_lcd_put_byte
	line	40
;lcd(16).c: 40: while(lcd_busy());
	
l7098:	
	fcall	_lcd_busy
	iorlw	0
	skipz
	goto	u4011
	goto	u4010
u4011:
	goto	l7098
u4010:
	line	41
	
l7100:	
;lcd(16).c: 41: lcd_put_byte(0,0b00000100);
	movlw	(04h)
	movwf	(?_lcd_put_byte)
	movlw	(0)
	fcall	_lcd_put_byte
	line	42
;lcd(16).c: 42: while(lcd_busy());
	
l7102:	
	fcall	_lcd_busy
	iorlw	0
	skipz
	goto	u4021
	goto	u4020
u4021:
	goto	l7102
u4020:
	line	43
	
l7104:	
;lcd(16).c: 43: lcd_put_byte(0,0x01);
	clrf	(?_lcd_put_byte)
	incf	(?_lcd_put_byte),f
	movlw	(0)
	fcall	_lcd_put_byte
	line	44
;lcd(16).c: 44: while(lcd_busy());
	
l7106:	
	fcall	_lcd_busy
	iorlw	0
	skipz
	goto	u4031
	goto	u4030
u4031:
	goto	l7106
u4030:
	line	45
	
l2111:	
	return
	opt stack 0
GLOBAL	__end_of_lcd_init
	__end_of_lcd_init:
;; =============== function _lcd_init ends ============

	signat	_lcd_init,88
	global	___lltoft
psect	text543,local,class=CODE,delta=2
global __ptext543
__ptext543:

;; *************** function ___lltoft *****************
;; Defined at:
;;		line 36 in file "C:\Program Files (x86)\HI-TECH Software\PICC\9.83\sources\lltoft.c"
;; Parameters:    Size  Location     Type
;;  c               4   16[BANK0 ] unsigned long 
;; Auto vars:     Size  Location     Type
;;  exp             1   20[BANK0 ] unsigned char 
;; Return value:  Size  Location     Type
;;                  3   16[BANK0 ] float 
;; Registers used:
;;		wreg, status,2, status,0, pclath, cstack
;; Tracked objects:
;;		On entry : 60/0
;;		On exit  : 60/0
;;		Unchanged: FFF9F/0
;; Data sizes:     COMMON   BANK0   BANK1   BANK3   BANK2
;;      Params:         0       4       0       0       0
;;      Locals:         0       1       0       0       0
;;      Temps:          0       0       0       0       0
;;      Totals:         0       5       0       0       0
;;Total ram usage:        5 bytes
;; Hardware stack levels used:    1
;; Hardware stack levels required when called:    4
;; This function calls:
;;		___ftpack
;; This function is called by:
;;		_printf
;; This function uses a non-reentrant model
;;
psect	text543
	file	"C:\Program Files (x86)\HI-TECH Software\PICC\9.83\sources\lltoft.c"
	line	36
	global	__size_of___lltoft
	__size_of___lltoft	equ	__end_of___lltoft-___lltoft
	
___lltoft:	
	opt	stack 2
; Regs used in ___lltoft: [wreg+status,2+status,0+pclath+cstack]
	line	38
	
l7060:	
	movlw	(08Eh)
	movwf	(___lltoft@exp)
	line	41
	goto	l7064
	line	42
	
l7062:	
	clrc
	rrf	(___lltoft@c+3),f
	rrf	(___lltoft@c+2),f
	rrf	(___lltoft@c+1),f
	rrf	(___lltoft@c),f
	line	43
	incf	(___lltoft@exp),f
	line	41
	
l7064:	
	movlw	high highword(-16777216)
	andwf	(___lltoft@c+3),w
	btfss	status,2
	goto	u3961
	goto	u3960
u3961:
	goto	l7062
u3960:
	line	45
	
l7066:	
	movf	(___lltoft@c),w
	movwf	(?___ftpack)
	movf	(___lltoft@c+1),w
	movwf	(?___ftpack+1)
	movf	(___lltoft@c+2),w
	movwf	(?___ftpack+2)
	movf	(___lltoft@exp),w
	movwf	0+(?___ftpack)+03h
	clrf	0+(?___ftpack)+04h
	fcall	___ftpack
	movf	(0+(?___ftpack)),w
	movwf	(?___lltoft)
	movf	(1+(?___ftpack)),w
	movwf	(?___lltoft+1)
	movf	(2+(?___ftpack)),w
	movwf	(?___lltoft+2)
	line	46
	
l3506:	
	return
	opt stack 0
GLOBAL	__end_of___lltoft
	__end_of___lltoft:
;; =============== function ___lltoft ends ============

	signat	___lltoft,4219
	global	___lbtoft
psect	text544,local,class=CODE,delta=2
global __ptext544
__ptext544:

;; *************** function ___lbtoft *****************
;; Defined at:
;;		line 28 in file "C:\Program Files (x86)\HI-TECH Software\PICC\9.83\sources\lbtoft.c"
;; Parameters:    Size  Location     Type
;;  c               1    wreg     unsigned char 
;; Auto vars:     Size  Location     Type
;;  c               1   19[BANK0 ] unsigned char 
;; Return value:  Size  Location     Type
;;                  3   16[BANK0 ] float 
;; Registers used:
;;		wreg, status,2, status,0, pclath, cstack
;; Tracked objects:
;;		On entry : 60/0
;;		On exit  : 60/0
;;		Unchanged: FFF9F/0
;; Data sizes:     COMMON   BANK0   BANK1   BANK3   BANK2
;;      Params:         0       3       0       0       0
;;      Locals:         0       1       0       0       0
;;      Temps:          0       0       0       0       0
;;      Totals:         0       4       0       0       0
;;Total ram usage:        4 bytes
;; Hardware stack levels used:    1
;; Hardware stack levels required when called:    4
;; This function calls:
;;		___ftpack
;; This function is called by:
;;		_main
;; This function uses a non-reentrant model
;;
psect	text544
	file	"C:\Program Files (x86)\HI-TECH Software\PICC\9.83\sources\lbtoft.c"
	line	28
	global	__size_of___lbtoft
	__size_of___lbtoft	equ	__end_of___lbtoft-___lbtoft
	
___lbtoft:	
	opt	stack 3
; Regs used in ___lbtoft: [wreg+status,2+status,0+pclath+cstack]
;___lbtoft@c stored from wreg
	movwf	(___lbtoft@c)
	line	29
	
l7056:	
	movf	(___lbtoft@c),w
	movwf	(?___ftpack)
	clrf	(?___ftpack+1)
	clrf	(?___ftpack+2)
	movlw	(08Eh)
	movwf	0+(?___ftpack)+03h
	clrf	0+(?___ftpack)+04h
	fcall	___ftpack
	movf	(0+(?___ftpack)),w
	movwf	(?___lbtoft)
	movf	(1+(?___ftpack)),w
	movwf	(?___lbtoft+1)
	movf	(2+(?___ftpack)),w
	movwf	(?___lbtoft+2)
	line	30
	
l3391:	
	return
	opt stack 0
GLOBAL	__end_of___lbtoft
	__end_of___lbtoft:
;; =============== function ___lbtoft ends ============

	signat	___lbtoft,4219
	global	___ftmul
psect	text545,local,class=CODE,delta=2
global __ptext545
__ptext545:

;; *************** function ___ftmul *****************
;; Defined at:
;;		line 52 in file "C:\Program Files (x86)\HI-TECH Software\PICC\9.83\sources\ftmul.c"
;; Parameters:    Size  Location     Type
;;  f1              3   35[BANK0 ] float 
;;  f2              3   38[BANK0 ] float 
;; Auto vars:     Size  Location     Type
;;  f3_as_produc    3   45[BANK0 ] unsigned um
;;  sign            1   49[BANK0 ] unsigned char 
;;  cntr            1   48[BANK0 ] unsigned char 
;;  exp             1   44[BANK0 ] unsigned char 
;; Return value:  Size  Location     Type
;;                  3   35[BANK0 ] float 
;; Registers used:
;;		wreg, status,2, status,0, pclath, cstack
;; Tracked objects:
;;		On entry : 60/0
;;		On exit  : 60/0
;;		Unchanged: FFF9F/0
;; Data sizes:     COMMON   BANK0   BANK1   BANK3   BANK2
;;      Params:         0       6       0       0       0
;;      Locals:         0       6       0       0       0
;;      Temps:          0       3       0       0       0
;;      Totals:         0      15       0       0       0
;;Total ram usage:       15 bytes
;; Hardware stack levels used:    1
;; Hardware stack levels required when called:    4
;; This function calls:
;;		___ftpack
;; This function is called by:
;;		_main
;;		_fround
;;		_scale
;;		_printf
;; This function uses a non-reentrant model
;;
psect	text545
	file	"C:\Program Files (x86)\HI-TECH Software\PICC\9.83\sources\ftmul.c"
	line	52
	global	__size_of___ftmul
	__size_of___ftmul	equ	__end_of___ftmul-___ftmul
	
___ftmul:	
	opt	stack 1
; Regs used in ___ftmul: [wreg+status,2+status,0+pclath+cstack]
	line	56
	
l7000:	
	movf	(___ftmul@f1),w
	movwf	((??___ftmul+0)+0)
	movf	(___ftmul@f1+1),w
	movwf	((??___ftmul+0)+0+1)
	movf	(___ftmul@f1+2),w
	movwf	((??___ftmul+0)+0+2)
	clrc
	rlf	(??___ftmul+0)+1,w
	rlf	(??___ftmul+0)+2,w
	movwf	(___ftmul@exp)
	movf	((___ftmul@exp)),f
	skipz
	goto	u3881
	goto	u3880
u3881:
	goto	l7006
u3880:
	line	57
	
l7002:	
	clrf	(?___ftmul)
	clrf	(?___ftmul+1)
	clrf	(?___ftmul+2)
	goto	l3365
	line	58
	
l7006:	
	movf	(___ftmul@f2),w
	movwf	((??___ftmul+0)+0)
	movf	(___ftmul@f2+1),w
	movwf	((??___ftmul+0)+0+1)
	movf	(___ftmul@f2+2),w
	movwf	((??___ftmul+0)+0+2)
	clrc
	rlf	(??___ftmul+0)+1,w
	rlf	(??___ftmul+0)+2,w
	movwf	(___ftmul@sign)
	movf	((___ftmul@sign)),f
	skipz
	goto	u3891
	goto	u3890
u3891:
	goto	l7012
u3890:
	line	59
	
l7008:	
	clrf	(?___ftmul)
	clrf	(?___ftmul+1)
	clrf	(?___ftmul+2)
	goto	l3365
	line	60
	
l7012:	
	movf	(___ftmul@sign),w
	addlw	07Bh
	addwf	(___ftmul@exp),f
	line	61
	
l7014:	
	movf	0+(((___ftmul@f1))+2),w
	movwf	(___ftmul@sign)
	line	62
	
l7016:	
	movf	0+(((___ftmul@f2))+2),w
	xorwf	(___ftmul@sign),f
	line	63
	
l7018:	
	movlw	(080h)
	andwf	(___ftmul@sign),f
	line	64
	
l7020:	
	bsf	(___ftmul@f1)+(15/8),(15)&7
	line	66
	
l7022:	
	bsf	(___ftmul@f2)+(15/8),(15)&7
	line	67
	
l7024:	
	movlw	0FFh
	andwf	(___ftmul@f2),f
	movlw	0FFh
	andwf	(___ftmul@f2+1),f
	movlw	0
	andwf	(___ftmul@f2+2),f
	line	68
	
l7026:	
	clrf	(___ftmul@f3_as_product)
	clrf	(___ftmul@f3_as_product+1)
	clrf	(___ftmul@f3_as_product+2)
	line	69
	
l7028:	
	movlw	(07h)
	movwf	(___ftmul@cntr)
	line	71
	
l7030:	
	btfss	(___ftmul@f1),(0)&7
	goto	u3901
	goto	u3900
u3901:
	goto	l7034
u3900:
	line	72
	
l7032:	
	movf	(___ftmul@f2),w
	addwf	(___ftmul@f3_as_product),f
	movf	(___ftmul@f2+1),w
	clrz
	skipnc
	incf	(___ftmul@f2+1),w
	skipnz
	goto	u3911
	addwf	(___ftmul@f3_as_product+1),f
u3911:
	movf	(___ftmul@f2+2),w
	clrz
	skipnc
	incf	(___ftmul@f2+2),w
	skipnz
	goto	u3912
	addwf	(___ftmul@f3_as_product+2),f
u3912:

	line	73
	
l7034:	
	clrc
	rrf	(___ftmul@f1+2),f
	rrf	(___ftmul@f1+1),f
	rrf	(___ftmul@f1),f
	line	74
	
l7036:	
	clrc
	rlf	(___ftmul@f2),f
	rlf	(___ftmul@f2+1),f
	rlf	(___ftmul@f2+2),f
	line	75
	
l7038:	
	decfsz	(___ftmul@cntr),f
	goto	u3921
	goto	u3920
u3921:
	goto	l7030
u3920:
	line	76
	
l7040:	
	movlw	(09h)
	movwf	(___ftmul@cntr)
	line	78
	
l7042:	
	btfss	(___ftmul@f1),(0)&7
	goto	u3931
	goto	u3930
u3931:
	goto	l7046
u3930:
	line	79
	
l7044:	
	movf	(___ftmul@f2),w
	addwf	(___ftmul@f3_as_product),f
	movf	(___ftmul@f2+1),w
	clrz
	skipnc
	incf	(___ftmul@f2+1),w
	skipnz
	goto	u3941
	addwf	(___ftmul@f3_as_product+1),f
u3941:
	movf	(___ftmul@f2+2),w
	clrz
	skipnc
	incf	(___ftmul@f2+2),w
	skipnz
	goto	u3942
	addwf	(___ftmul@f3_as_product+2),f
u3942:

	line	80
	
l7046:	
	clrc
	rrf	(___ftmul@f1+2),f
	rrf	(___ftmul@f1+1),f
	rrf	(___ftmul@f1),f
	line	81
	
l7048:	
	clrc
	rrf	(___ftmul@f3_as_product+2),f
	rrf	(___ftmul@f3_as_product+1),f
	rrf	(___ftmul@f3_as_product),f
	line	82
	
l7050:	
	decfsz	(___ftmul@cntr),f
	goto	u3951
	goto	u3950
u3951:
	goto	l7042
u3950:
	line	83
	
l7052:	
	movf	(___ftmul@f3_as_product),w
	movwf	(?___ftpack)
	movf	(___ftmul@f3_as_product+1),w
	movwf	(?___ftpack+1)
	movf	(___ftmul@f3_as_product+2),w
	movwf	(?___ftpack+2)
	movf	(___ftmul@exp),w
	movwf	0+(?___ftpack)+03h
	movf	(___ftmul@sign),w
	movwf	0+(?___ftpack)+04h
	fcall	___ftpack
	movf	(0+(?___ftpack)),w
	movwf	(?___ftmul)
	movf	(1+(?___ftpack)),w
	movwf	(?___ftmul+1)
	movf	(2+(?___ftpack)),w
	movwf	(?___ftmul+2)
	line	84
	
l3365:	
	return
	opt stack 0
GLOBAL	__end_of___ftmul
	__end_of___ftmul:
;; =============== function ___ftmul ends ============

	signat	___ftmul,8315
	global	___ftdiv
psect	text546,local,class=CODE,delta=2
global __ptext546
__ptext546:

;; *************** function ___ftdiv *****************
;; Defined at:
;;		line 50 in file "C:\Program Files (x86)\HI-TECH Software\PICC\9.83\sources\ftdiv.c"
;; Parameters:    Size  Location     Type
;;  f2              3   50[BANK0 ] float 
;;  f1              3   53[BANK0 ] float 
;; Auto vars:     Size  Location     Type
;;  f3              3   60[BANK0 ] float 
;;  sign            1   64[BANK0 ] unsigned char 
;;  exp             1   63[BANK0 ] unsigned char 
;;  cntr            1   59[BANK0 ] unsigned char 
;; Return value:  Size  Location     Type
;;                  3   50[BANK0 ] float 
;; Registers used:
;;		wreg, status,2, status,0, pclath, cstack
;; Tracked objects:
;;		On entry : 60/0
;;		On exit  : 60/0
;;		Unchanged: FFF9F/0
;; Data sizes:     COMMON   BANK0   BANK1   BANK3   BANK2
;;      Params:         0       6       0       0       0
;;      Locals:         0       6       0       0       0
;;      Temps:          0       3       0       0       0
;;      Totals:         0      15       0       0       0
;;Total ram usage:       15 bytes
;; Hardware stack levels used:    1
;; Hardware stack levels required when called:    4
;; This function calls:
;;		___ftpack
;; This function is called by:
;;		_main
;; This function uses a non-reentrant model
;;
psect	text546
	file	"C:\Program Files (x86)\HI-TECH Software\PICC\9.83\sources\ftdiv.c"
	line	50
	global	__size_of___ftdiv
	__size_of___ftdiv	equ	__end_of___ftdiv-___ftdiv
	
___ftdiv:	
	opt	stack 3
; Regs used in ___ftdiv: [wreg+status,2+status,0+pclath+cstack]
	line	55
	
l6956:	
	movf	(___ftdiv@f1),w
	movwf	((??___ftdiv+0)+0)
	movf	(___ftdiv@f1+1),w
	movwf	((??___ftdiv+0)+0+1)
	movf	(___ftdiv@f1+2),w
	movwf	((??___ftdiv+0)+0+2)
	clrc
	rlf	(??___ftdiv+0)+1,w
	rlf	(??___ftdiv+0)+2,w
	movwf	(___ftdiv@exp)
	movf	((___ftdiv@exp)),f
	skipz
	goto	u3841
	goto	u3840
u3841:
	goto	l6962
u3840:
	line	56
	
l6958:	
	clrf	(?___ftdiv)
	clrf	(?___ftdiv+1)
	clrf	(?___ftdiv+2)
	goto	l3355
	line	57
	
l6962:	
	movf	(___ftdiv@f2),w
	movwf	((??___ftdiv+0)+0)
	movf	(___ftdiv@f2+1),w
	movwf	((??___ftdiv+0)+0+1)
	movf	(___ftdiv@f2+2),w
	movwf	((??___ftdiv+0)+0+2)
	clrc
	rlf	(??___ftdiv+0)+1,w
	rlf	(??___ftdiv+0)+2,w
	movwf	(___ftdiv@sign)
	movf	((___ftdiv@sign)),f
	skipz
	goto	u3851
	goto	u3850
u3851:
	goto	l3356
u3850:
	line	58
	
l6964:	
	clrf	(?___ftdiv)
	clrf	(?___ftdiv+1)
	clrf	(?___ftdiv+2)
	goto	l3355
	
l3356:	
	line	59
	clrf	(___ftdiv@f3)
	clrf	(___ftdiv@f3+1)
	clrf	(___ftdiv@f3+2)
	line	60
	
l6968:	
	movlw	(089h)
	addwf	(___ftdiv@sign),w
	movwf	(??___ftdiv+0)+0
	movf	0+(??___ftdiv+0)+0,w
	subwf	(___ftdiv@exp),f
	line	61
	
l6970:	
	movf	0+(((___ftdiv@f1))+2),w
	movwf	(___ftdiv@sign)
	line	62
	
l6972:	
	movf	0+(((___ftdiv@f2))+2),w
	xorwf	(___ftdiv@sign),f
	line	63
	
l6974:	
	movlw	(080h)
	andwf	(___ftdiv@sign),f
	line	64
	
l6976:	
	bsf	(___ftdiv@f1)+(15/8),(15)&7
	line	65
	
l6978:	
	movlw	0FFh
	andwf	(___ftdiv@f1),f
	movlw	0FFh
	andwf	(___ftdiv@f1+1),f
	movlw	0
	andwf	(___ftdiv@f1+2),f
	line	66
	
l6980:	
	bsf	(___ftdiv@f2)+(15/8),(15)&7
	line	67
	
l6982:	
	movlw	0FFh
	andwf	(___ftdiv@f2),f
	movlw	0FFh
	andwf	(___ftdiv@f2+1),f
	movlw	0
	andwf	(___ftdiv@f2+2),f
	line	68
	
l6984:	
	movlw	(018h)
	movwf	(___ftdiv@cntr)
	line	70
	
l6986:	
	clrc
	rlf	(___ftdiv@f3),f
	rlf	(___ftdiv@f3+1),f
	rlf	(___ftdiv@f3+2),f
	line	71
	movf	(___ftdiv@f2+2),w
	subwf	(___ftdiv@f1+2),w
	skipz
	goto	u3865
	movf	(___ftdiv@f2+1),w
	subwf	(___ftdiv@f1+1),w
	skipz
	goto	u3865
	movf	(___ftdiv@f2),w
	subwf	(___ftdiv@f1),w
u3865:
	skipc
	goto	u3861
	goto	u3860
u3861:
	goto	l6992
u3860:
	line	72
	
l6988:	
	movf	(___ftdiv@f2),w
	subwf	(___ftdiv@f1),f
	movf	(___ftdiv@f2+1),w
	skipc
	incfsz	(___ftdiv@f2+1),w
	subwf	(___ftdiv@f1+1),f
	movf	(___ftdiv@f2+2),w
	skipc
	incf	(___ftdiv@f2+2),w
	subwf	(___ftdiv@f1+2),f
	line	73
	
l6990:	
	bsf	(___ftdiv@f3)+(0/8),(0)&7
	line	75
	
l6992:	
	clrc
	rlf	(___ftdiv@f1),f
	rlf	(___ftdiv@f1+1),f
	rlf	(___ftdiv@f1+2),f
	line	76
	
l6994:	
	decfsz	(___ftdiv@cntr),f
	goto	u3871
	goto	u3870
u3871:
	goto	l6986
u3870:
	line	77
	
l6996:	
	movf	(___ftdiv@f3),w
	movwf	(?___ftpack)
	movf	(___ftdiv@f3+1),w
	movwf	(?___ftpack+1)
	movf	(___ftdiv@f3+2),w
	movwf	(?___ftpack+2)
	movf	(___ftdiv@exp),w
	movwf	0+(?___ftpack)+03h
	movf	(___ftdiv@sign),w
	movwf	0+(?___ftpack)+04h
	fcall	___ftpack
	movf	(0+(?___ftpack)),w
	movwf	(?___ftdiv)
	movf	(1+(?___ftpack)),w
	movwf	(?___ftdiv+1)
	movf	(2+(?___ftpack)),w
	movwf	(?___ftdiv+2)
	line	78
	
l3355:	
	return
	opt stack 0
GLOBAL	__end_of___ftdiv
	__end_of___ftdiv:
;; =============== function ___ftdiv ends ============

	signat	___ftdiv,8315
	global	___ftadd
psect	text547,local,class=CODE,delta=2
global __ptext547
__ptext547:

;; *************** function ___ftadd *****************
;; Defined at:
;;		line 87 in file "C:\Program Files (x86)\HI-TECH Software\PICC\9.83\sources\ftadd.c"
;; Parameters:    Size  Location     Type
;;  f1              3   50[BANK0 ] float 
;;  f2              3   53[BANK0 ] float 
;; Auto vars:     Size  Location     Type
;;  exp1            1   61[BANK0 ] unsigned char 
;;  exp2            1   60[BANK0 ] unsigned char 
;;  sign            1   59[BANK0 ] unsigned char 
;; Return value:  Size  Location     Type
;;                  3   50[BANK0 ] float 
;; Registers used:
;;		wreg, status,2, status,0, pclath, cstack
;; Tracked objects:
;;		On entry : 60/0
;;		On exit  : 60/0
;;		Unchanged: FFF9F/0
;; Data sizes:     COMMON   BANK0   BANK1   BANK3   BANK2
;;      Params:         0       6       0       0       0
;;      Locals:         0       3       0       0       0
;;      Temps:          0       3       0       0       0
;;      Totals:         0      12       0       0       0
;;Total ram usage:       12 bytes
;; Hardware stack levels used:    1
;; Hardware stack levels required when called:    4
;; This function calls:
;;		___ftpack
;; This function is called by:
;;		_main
;;		_printf
;;		___ftsub
;; This function uses a non-reentrant model
;;
psect	text547
	file	"C:\Program Files (x86)\HI-TECH Software\PICC\9.83\sources\ftadd.c"
	line	87
	global	__size_of___ftadd
	__size_of___ftadd	equ	__end_of___ftadd-___ftadd
	
___ftadd:	
	opt	stack 1
; Regs used in ___ftadd: [wreg+status,2+status,0+pclath+cstack]
	line	90
	
l6878:	
	movf	(___ftadd@f1),w
	movwf	((??___ftadd+0)+0)
	movf	(___ftadd@f1+1),w
	movwf	((??___ftadd+0)+0+1)
	movf	(___ftadd@f1+2),w
	movwf	((??___ftadd+0)+0+2)
	clrc
	rlf	(??___ftadd+0)+1,w
	rlf	(??___ftadd+0)+2,w
	movwf	(___ftadd@exp1)
	line	91
	movf	(___ftadd@f2),w
	movwf	((??___ftadd+0)+0)
	movf	(___ftadd@f2+1),w
	movwf	((??___ftadd+0)+0+1)
	movf	(___ftadd@f2+2),w
	movwf	((??___ftadd+0)+0+2)
	clrc
	rlf	(??___ftadd+0)+1,w
	rlf	(??___ftadd+0)+2,w
	movwf	(___ftadd@exp2)
	line	92
	
l6880:	
	movf	(___ftadd@exp1),w
	skipz
	goto	u3640
	goto	l6886
u3640:
	
l6882:	
	movf	(___ftadd@exp2),w
	subwf	(___ftadd@exp1),w
	skipnc
	goto	u3651
	goto	u3650
u3651:
	goto	l6890
u3650:
	
l6884:	
	movf	(___ftadd@exp2),w
	movwf	(??___ftadd+0)+0
	movf	(___ftadd@exp1),w
	subwf	(??___ftadd+0)+0,f
	movlw	(019h)
	subwf	0+(??___ftadd+0)+0,w
	skipc
	goto	u3661
	goto	u3660
u3661:
	goto	l6890
u3660:
	line	93
	
l6886:	
	movf	(___ftadd@f2),w
	movwf	(?___ftadd)
	movf	(___ftadd@f2+1),w
	movwf	(?___ftadd+1)
	movf	(___ftadd@f2+2),w
	movwf	(?___ftadd+2)
	goto	l3313
	line	94
	
l6890:	
	movf	(___ftadd@exp2),w
	skipz
	goto	u3670
	goto	l3316
u3670:
	
l6892:	
	movf	(___ftadd@exp1),w
	subwf	(___ftadd@exp2),w
	skipnc
	goto	u3681
	goto	u3680
u3681:
	goto	l6896
u3680:
	
l6894:	
	movf	(___ftadd@exp1),w
	movwf	(??___ftadd+0)+0
	movf	(___ftadd@exp2),w
	subwf	(??___ftadd+0)+0,f
	movlw	(019h)
	subwf	0+(??___ftadd+0)+0,w
	skipc
	goto	u3691
	goto	u3690
u3691:
	goto	l6896
u3690:
	
l3316:	
	line	95
	goto	l3313
	line	96
	
l6896:	
	movlw	(06h)
	movwf	(___ftadd@sign)
	line	97
	
l6898:	
	btfss	(___ftadd@f1+2),(23)&7
	goto	u3701
	goto	u3700
u3701:
	goto	l3317
u3700:
	line	98
	
l6900:	
	bsf	(___ftadd@sign)+(7/8),(7)&7
	
l3317:	
	line	99
	btfss	(___ftadd@f2+2),(23)&7
	goto	u3711
	goto	u3710
u3711:
	goto	l3318
u3710:
	line	100
	
l6902:	
	bsf	(___ftadd@sign)+(6/8),(6)&7
	
l3318:	
	line	101
	bsf	(___ftadd@f1)+(15/8),(15)&7
	line	102
	
l6904:	
	movlw	0FFh
	andwf	(___ftadd@f1),f
	movlw	0FFh
	andwf	(___ftadd@f1+1),f
	movlw	0
	andwf	(___ftadd@f1+2),f
	line	103
	
l6906:	
	bsf	(___ftadd@f2)+(15/8),(15)&7
	line	104
	movlw	0FFh
	andwf	(___ftadd@f2),f
	movlw	0FFh
	andwf	(___ftadd@f2+1),f
	movlw	0
	andwf	(___ftadd@f2+2),f
	line	106
	movf	(___ftadd@exp2),w
	subwf	(___ftadd@exp1),w
	skipnc
	goto	u3721
	goto	u3720
u3721:
	goto	l6918
u3720:
	line	110
	
l6908:	
	clrc
	rlf	(___ftadd@f2),f
	rlf	(___ftadd@f2+1),f
	rlf	(___ftadd@f2+2),f
	line	111
	decf	(___ftadd@exp2),f
	line	112
	
l6910:	
	movf	(___ftadd@exp2),w
	xorwf	(___ftadd@exp1),w
	skipnz
	goto	u3731
	goto	u3730
u3731:
	goto	l6916
u3730:
	
l6912:	
	decf	(___ftadd@sign),f
	movf	((___ftadd@sign)),w
	andlw	07h
	btfss	status,2
	goto	u3741
	goto	u3740
u3741:
	goto	l6908
u3740:
	goto	l6916
	line	114
	
l6914:	
	clrc
	rrf	(___ftadd@f1+2),f
	rrf	(___ftadd@f1+1),f
	rrf	(___ftadd@f1),f
	line	115
	incf	(___ftadd@exp1),f
	line	113
	
l6916:	
	movf	(___ftadd@exp1),w
	xorwf	(___ftadd@exp2),w
	skipz
	goto	u3751
	goto	u3750
u3751:
	goto	l6914
u3750:
	goto	l3327
	line	117
	
l6918:	
	movf	(___ftadd@exp1),w
	subwf	(___ftadd@exp2),w
	skipnc
	goto	u3761
	goto	u3760
u3761:
	goto	l3327
u3760:
	line	121
	
l6920:	
	clrc
	rlf	(___ftadd@f1),f
	rlf	(___ftadd@f1+1),f
	rlf	(___ftadd@f1+2),f
	line	122
	decf	(___ftadd@exp1),f
	line	123
	
l6922:	
	movf	(___ftadd@exp2),w
	xorwf	(___ftadd@exp1),w
	skipnz
	goto	u3771
	goto	u3770
u3771:
	goto	l6928
u3770:
	
l6924:	
	decf	(___ftadd@sign),f
	movf	((___ftadd@sign)),w
	andlw	07h
	btfss	status,2
	goto	u3781
	goto	u3780
u3781:
	goto	l6920
u3780:
	goto	l6928
	line	125
	
l6926:	
	clrc
	rrf	(___ftadd@f2+2),f
	rrf	(___ftadd@f2+1),f
	rrf	(___ftadd@f2),f
	line	126
	incf	(___ftadd@exp2),f
	line	124
	
l6928:	
	movf	(___ftadd@exp1),w
	xorwf	(___ftadd@exp2),w
	skipz
	goto	u3791
	goto	u3790
u3791:
	goto	l6926
u3790:
	line	129
	
l3327:	
	btfss	(___ftadd@sign),(7)&7
	goto	u3801
	goto	u3800
u3801:
	goto	l6934
u3800:
	line	131
	
l6930:	
	movlw	0FFh
	xorwf	(___ftadd@f1),f
	movlw	0FFh
	xorwf	(___ftadd@f1+1),f
	movlw	0FFh
	xorwf	(___ftadd@f1+2),f
	line	132
	
l6932:	
	incf	(___ftadd@f1),f
	skipnz
	incf	(___ftadd@f1+1),f
	skipnz
	incf	(___ftadd@f1+2),f
	line	134
	
l6934:	
	btfss	(___ftadd@sign),(6)&7
	goto	u3811
	goto	u3810
u3811:
	goto	l6940
u3810:
	line	136
	
l6936:	
	movlw	0FFh
	xorwf	(___ftadd@f2),f
	movlw	0FFh
	xorwf	(___ftadd@f2+1),f
	movlw	0FFh
	xorwf	(___ftadd@f2+2),f
	line	137
	
l6938:	
	incf	(___ftadd@f2),f
	skipnz
	incf	(___ftadd@f2+1),f
	skipnz
	incf	(___ftadd@f2+2),f
	line	139
	
l6940:	
	clrf	(___ftadd@sign)
	line	140
	
l6942:	
	movf	(___ftadd@f1),w
	addwf	(___ftadd@f2),f
	movf	(___ftadd@f1+1),w
	clrz
	skipnc
	incf	(___ftadd@f1+1),w
	skipnz
	goto	u3821
	addwf	(___ftadd@f2+1),f
u3821:
	movf	(___ftadd@f1+2),w
	clrz
	skipnc
	incf	(___ftadd@f1+2),w
	skipnz
	goto	u3822
	addwf	(___ftadd@f2+2),f
u3822:

	line	141
	
l6944:	
	btfss	(___ftadd@f2+2),(23)&7
	goto	u3831
	goto	u3830
u3831:
	goto	l6952
u3830:
	line	142
	
l6946:	
	movlw	0FFh
	xorwf	(___ftadd@f2),f
	movlw	0FFh
	xorwf	(___ftadd@f2+1),f
	movlw	0FFh
	xorwf	(___ftadd@f2+2),f
	line	143
	
l6948:	
	incf	(___ftadd@f2),f
	skipnz
	incf	(___ftadd@f2+1),f
	skipnz
	incf	(___ftadd@f2+2),f
	line	144
	
l6950:	
	clrf	(___ftadd@sign)
	incf	(___ftadd@sign),f
	line	146
	
l6952:	
	movf	(___ftadd@f2),w
	movwf	(?___ftpack)
	movf	(___ftadd@f2+1),w
	movwf	(?___ftpack+1)
	movf	(___ftadd@f2+2),w
	movwf	(?___ftpack+2)
	movf	(___ftadd@exp1),w
	movwf	0+(?___ftpack)+03h
	movf	(___ftadd@sign),w
	movwf	0+(?___ftpack)+04h
	fcall	___ftpack
	movf	(0+(?___ftpack)),w
	movwf	(?___ftadd)
	movf	(1+(?___ftpack)),w
	movwf	(?___ftadd+1)
	movf	(2+(?___ftpack)),w
	movwf	(?___ftadd+2)
	line	148
	
l3313:	
	return
	opt stack 0
GLOBAL	__end_of___ftadd
	__end_of___ftadd:
;; =============== function ___ftadd ends ============

	signat	___ftadd,8315
	global	_lcd_busy
psect	text548,local,class=CODE,delta=2
global __ptext548
__ptext548:

;; *************** function _lcd_busy *****************
;; Defined at:
;;		line 47 in file "C:\Online Class\HK6\Practice_Micro\tmr0 counter\lcd(16).c"
;; Parameters:    Size  Location     Type
;;		None
;; Auto vars:     Size  Location     Type
;;  busy            1    9[BANK0 ] unsigned char 
;; Return value:  Size  Location     Type
;;                  1    wreg      unsigned char 
;; Registers used:
;;		wreg
;; Tracked objects:
;;		On entry : 0/0
;;		On exit  : 60/0
;;		Unchanged: 0/0
;; Data sizes:     COMMON   BANK0   BANK1   BANK3   BANK2
;;      Params:         0       0       0       0       0
;;      Locals:         0       1       0       0       0
;;      Temps:          0       1       0       0       0
;;      Totals:         0       2       0       0       0
;;Total ram usage:        2 bytes
;; Hardware stack levels used:    1
;; Hardware stack levels required when called:    3
;; This function calls:
;;		Nothing
;; This function is called by:
;;		_lcd_init
;;		_lcd_putc
;;		_lcd_gotoxy
;; This function uses a non-reentrant model
;;
psect	text548
	file	"C:\Online Class\HK6\Practice_Micro\tmr0 counter\lcd(16).c"
	line	47
	global	__size_of_lcd_busy
	__size_of_lcd_busy	equ	__end_of_lcd_busy-_lcd_busy
	
_lcd_busy:	
	opt	stack 0
; Regs used in _lcd_busy: [wreg]
	line	50
	
l6864:	
;lcd(16).c: 48: unsigned char busy;
;lcd(16).c: 50: TRISD4 = 1;
	bsf	status, 5	;RP0=1, select bank1
	bcf	status, 6	;RP1=0, select bank1
	bsf	(1092/8)^080h,(1092)&7
	line	51
;lcd(16).c: 51: TRISD5 = 1;
	bsf	(1093/8)^080h,(1093)&7
	line	52
;lcd(16).c: 52: TRISD6 = 1;
	bsf	(1094/8)^080h,(1094)&7
	line	53
;lcd(16).c: 53: TRISD7 = 1;
	bsf	(1095/8)^080h,(1095)&7
	line	55
;lcd(16).c: 55: RD2 = 1;
	bcf	status, 5	;RP0=0, select bank0
	bsf	(66/8),(66)&7
	line	56
;lcd(16).c: 56: RD1 = 0;
	bcf	(65/8),(65)&7
	line	57
	
l6866:	
;lcd(16).c: 57: _delay((unsigned long)((20)*(20000000/4000000.0)));
	opt asmopt_off
movlw	33
movwf	(??_lcd_busy+0)+0,f
u4677:
decfsz	(??_lcd_busy+0)+0,f
	goto	u4677
opt asmopt_on

	line	58
	
l6868:	
;lcd(16).c: 58: RD3 = 1;
	bcf	status, 5	;RP0=0, select bank0
	bcf	status, 6	;RP1=0, select bank0
	bsf	(67/8),(67)&7
	line	59
;lcd(16).c: 59: _delay((unsigned long)((20)*(20000000/4000000.0)));
	opt asmopt_off
movlw	33
movwf	(??_lcd_busy+0)+0,f
u4687:
decfsz	(??_lcd_busy+0)+0,f
	goto	u4687
opt asmopt_on

	line	61
;lcd(16).c: 61: busy = RD7;
	movlw	0
	bcf	status, 5	;RP0=0, select bank0
	bcf	status, 6	;RP1=0, select bank0
	btfsc	(71/8),(71)&7
	movlw	1
	movwf	(lcd_busy@busy)
	line	63
	
l6870:	
;lcd(16).c: 63: RD3 = 0;
	bcf	(67/8),(67)&7
	line	64
;lcd(16).c: 64: _delay((unsigned long)((20)*(20000000/4000000.0)));
	opt asmopt_off
movlw	33
movwf	(??_lcd_busy+0)+0,f
u4697:
decfsz	(??_lcd_busy+0)+0,f
	goto	u4697
opt asmopt_on

	line	65
	
l6872:	
;lcd(16).c: 65: RD3 = 1;
	bcf	status, 5	;RP0=0, select bank0
	bcf	status, 6	;RP1=0, select bank0
	bsf	(67/8),(67)&7
	line	66
;lcd(16).c: 66: _delay((unsigned long)((20)*(20000000/4000000.0)));
	opt asmopt_off
movlw	33
movwf	(??_lcd_busy+0)+0,f
u4707:
decfsz	(??_lcd_busy+0)+0,f
	goto	u4707
opt asmopt_on

	line	67
	
l6874:	
;lcd(16).c: 67: RD3 = 0;
	bcf	status, 5	;RP0=0, select bank0
	bcf	status, 6	;RP1=0, select bank0
	bcf	(67/8),(67)&7
	line	70
;lcd(16).c: 70: return busy;
	movf	(lcd_busy@busy),w
	line	71
	
l2114:	
	return
	opt stack 0
GLOBAL	__end_of_lcd_busy
	__end_of_lcd_busy:
;; =============== function _lcd_busy ends ============

	signat	_lcd_busy,89
	global	_lcd_put_byte
psect	text549,local,class=CODE,delta=2
global __ptext549
__ptext549:

;; *************** function _lcd_put_byte *****************
;; Defined at:
;;		line 106 in file "C:\Online Class\HK6\Practice_Micro\tmr0 counter\lcd(16).c"
;; Parameters:    Size  Location     Type
;;  rs              1    wreg     unsigned char 
;;  b               1    8[BANK0 ] unsigned char 
;; Auto vars:     Size  Location     Type
;;  rs              1   11[BANK0 ] unsigned char 
;;  temp            1   12[BANK0 ] struct _BYTE_VAL
;; Return value:  Size  Location     Type
;;		None               void
;; Registers used:
;;		wreg, status,2, status,0
;; Tracked objects:
;;		On entry : 60/0
;;		On exit  : 60/0
;;		Unchanged: 0/0
;; Data sizes:     COMMON   BANK0   BANK1   BANK3   BANK2
;;      Params:         0       1       0       0       0
;;      Locals:         0       2       0       0       0
;;      Temps:          0       2       0       0       0
;;      Totals:         0       5       0       0       0
;;Total ram usage:        5 bytes
;; Hardware stack levels used:    1
;; Hardware stack levels required when called:    3
;; This function calls:
;;		Nothing
;; This function is called by:
;;		_lcd_init
;;		_lcd_putc
;;		_lcd_gotoxy
;; This function uses a non-reentrant model
;;
psect	text549
	file	"C:\Online Class\HK6\Practice_Micro\tmr0 counter\lcd(16).c"
	line	106
	global	__size_of_lcd_put_byte
	__size_of_lcd_put_byte	equ	__end_of_lcd_put_byte-_lcd_put_byte
	
_lcd_put_byte:	
	opt	stack 0
; Regs used in _lcd_put_byte: [wreg+status,2+status,0]
;lcd_put_byte@rs stored from wreg
	line	109
	movwf	(lcd_put_byte@rs)
	
l6828:	
;lcd(16).c: 107: BYTE_VAL temp;
;lcd(16).c: 109: TRISD4 = 0;
	bsf	status, 5	;RP0=1, select bank1
	bcf	(1092/8)^080h,(1092)&7
	line	110
;lcd(16).c: 110: TRISD5 = 0;
	bcf	(1093/8)^080h,(1093)&7
	line	111
;lcd(16).c: 111: TRISD6 = 0;
	bcf	(1094/8)^080h,(1094)&7
	line	112
;lcd(16).c: 112: TRISD7 = 0;
	bcf	(1095/8)^080h,(1095)&7
	line	114
;lcd(16).c: 114: RD1 = 0;
	bcf	status, 5	;RP0=0, select bank0
	bcf	(65/8),(65)&7
	line	115
	
l6830:	
;lcd(16).c: 115: if(rs) RD1 = 1;
	movf	(lcd_put_byte@rs),w
	skipz
	goto	u3470
	goto	l6834
u3470:
	
l6832:	
	bsf	(65/8),(65)&7
	line	117
	
l6834:	
;lcd(16).c: 117: _delay((unsigned long)((20)*(20000000/4000000.0)));
	opt asmopt_off
movlw	33
movwf	(??_lcd_put_byte+0)+0,f
u4717:
decfsz	(??_lcd_put_byte+0)+0,f
	goto	u4717
opt asmopt_on

	line	118
	
l6836:	
;lcd(16).c: 118: RD2 = 0;
	bcf	status, 5	;RP0=0, select bank0
	bcf	status, 6	;RP1=0, select bank0
	bcf	(66/8),(66)&7
	line	119
;lcd(16).c: 119: _delay((unsigned long)((20)*(20000000/4000000.0)));
	opt asmopt_off
movlw	33
movwf	(??_lcd_put_byte+0)+0,f
u4727:
decfsz	(??_lcd_put_byte+0)+0,f
	goto	u4727
opt asmopt_on

	line	120
	
l6838:	
;lcd(16).c: 120: RD3 = 0;
	bcf	status, 5	;RP0=0, select bank0
	bcf	status, 6	;RP1=0, select bank0
	bcf	(67/8),(67)&7
	line	122
;lcd(16).c: 122: temp.Val = b;
	movf	(lcd_put_byte@b),w
	movwf	(lcd_put_byte@temp)
	line	125
	
l6840:	
;lcd(16).c: 125: RD4 = temp.bits.b4;
	swapf	(lcd_put_byte@temp),w
	andlw	(1<<1)-1
	movwf	(??_lcd_put_byte+0)+0
	rrf	(??_lcd_put_byte+0)+0,w
	btfsc	status,0
	goto	u3481
	goto	u3480
	
u3481:
	bcf	status, 5	;RP0=0, select bank0
	bcf	status, 6	;RP1=0, select bank0
	bsf	(68/8),(68)&7
	goto	u3494
u3480:
	bcf	status, 5	;RP0=0, select bank0
	bcf	status, 6	;RP1=0, select bank0
	bcf	(68/8),(68)&7
u3494:
	line	126
	
l6842:	
;lcd(16).c: 126: RD5 = temp.bits.b5;
	swapf	(lcd_put_byte@temp),w
	movwf	(??_lcd_put_byte+0)+0
	rrf	(??_lcd_put_byte+0)+0,w
	andlw	(1<<1)-1
	movwf	(??_lcd_put_byte+1)+0
	rrf	(??_lcd_put_byte+1)+0,w
	btfsc	status,0
	goto	u3501
	goto	u3500
	
u3501:
	bcf	status, 5	;RP0=0, select bank0
	bcf	status, 6	;RP1=0, select bank0
	bsf	(69/8),(69)&7
	goto	u3514
u3500:
	bcf	status, 5	;RP0=0, select bank0
	bcf	status, 6	;RP1=0, select bank0
	bcf	(69/8),(69)&7
u3514:
	line	127
	
l6844:	
;lcd(16).c: 127: RD6 = temp.bits.b6;
	swapf	(lcd_put_byte@temp),w
	movwf	(??_lcd_put_byte+0)+0
	rrf	(??_lcd_put_byte+0)+0,f
	rrf	(??_lcd_put_byte+0)+0,w
	andlw	(1<<1)-1
	movwf	(??_lcd_put_byte+1)+0
	rrf	(??_lcd_put_byte+1)+0,w
	btfsc	status,0
	goto	u3521
	goto	u3520
	
u3521:
	bcf	status, 5	;RP0=0, select bank0
	bcf	status, 6	;RP1=0, select bank0
	bsf	(70/8),(70)&7
	goto	u3534
u3520:
	bcf	status, 5	;RP0=0, select bank0
	bcf	status, 6	;RP1=0, select bank0
	bcf	(70/8),(70)&7
u3534:
	line	128
	
l6846:	
;lcd(16).c: 128: RD7 = temp.bits.b7;
	rlf	(lcd_put_byte@temp),w
	rlf	(lcd_put_byte@temp),w
	andlw	1
	movwf	(??_lcd_put_byte+0)+0
	rrf	(??_lcd_put_byte+0)+0,w
	btfsc	status,0
	goto	u3541
	goto	u3540
	
u3541:
	bcf	status, 5	;RP0=0, select bank0
	bcf	status, 6	;RP1=0, select bank0
	bsf	(71/8),(71)&7
	goto	u3554
u3540:
	bcf	status, 5	;RP0=0, select bank0
	bcf	status, 6	;RP1=0, select bank0
	bcf	(71/8),(71)&7
u3554:
	line	129
;lcd(16).c: 129: _delay((unsigned long)((20)*(20000000/4000000.0)));
	opt asmopt_off
movlw	33
movwf	(??_lcd_put_byte+0)+0,f
u4737:
decfsz	(??_lcd_put_byte+0)+0,f
	goto	u4737
opt asmopt_on

	line	130
	
l6848:	
;lcd(16).c: 130: RD3 = 1;
	bcf	status, 5	;RP0=0, select bank0
	bcf	status, 6	;RP1=0, select bank0
	bsf	(67/8),(67)&7
	line	131
;lcd(16).c: 131: _delay((unsigned long)((20)*(20000000/4000000.0)));
	opt asmopt_off
movlw	33
movwf	(??_lcd_put_byte+0)+0,f
u4747:
decfsz	(??_lcd_put_byte+0)+0,f
	goto	u4747
opt asmopt_on

	line	132
	
l6850:	
;lcd(16).c: 132: RD3 = 0;
	bcf	status, 5	;RP0=0, select bank0
	bcf	status, 6	;RP1=0, select bank0
	bcf	(67/8),(67)&7
	line	134
	
l6852:	
;lcd(16).c: 134: RD4 = temp.bits.b0;
	movf	(lcd_put_byte@temp),w
	andlw	(1<<1)-1
	movwf	(??_lcd_put_byte+0)+0
	rrf	(??_lcd_put_byte+0)+0,w
	btfsc	status,0
	goto	u3561
	goto	u3560
	
u3561:
	bcf	status, 5	;RP0=0, select bank0
	bcf	status, 6	;RP1=0, select bank0
	bsf	(68/8),(68)&7
	goto	u3574
u3560:
	bcf	status, 5	;RP0=0, select bank0
	bcf	status, 6	;RP1=0, select bank0
	bcf	(68/8),(68)&7
u3574:
	line	135
	
l6854:	
;lcd(16).c: 135: RD5 = temp.bits.b1;
	rrf	(lcd_put_byte@temp),w
	andlw	(1<<1)-1
	movwf	(??_lcd_put_byte+0)+0
	rrf	(??_lcd_put_byte+0)+0,w
	btfsc	status,0
	goto	u3581
	goto	u3580
	
u3581:
	bcf	status, 5	;RP0=0, select bank0
	bcf	status, 6	;RP1=0, select bank0
	bsf	(69/8),(69)&7
	goto	u3594
u3580:
	bcf	status, 5	;RP0=0, select bank0
	bcf	status, 6	;RP1=0, select bank0
	bcf	(69/8),(69)&7
u3594:
	line	136
	
l6856:	
;lcd(16).c: 136: RD6 = temp.bits.b2;
	rrf	(lcd_put_byte@temp),w
	movwf	(??_lcd_put_byte+0)+0
	rrf	(??_lcd_put_byte+0)+0,w
	andlw	(1<<1)-1
	movwf	(??_lcd_put_byte+1)+0
	rrf	(??_lcd_put_byte+1)+0,w
	btfsc	status,0
	goto	u3601
	goto	u3600
	
u3601:
	bcf	status, 5	;RP0=0, select bank0
	bcf	status, 6	;RP1=0, select bank0
	bsf	(70/8),(70)&7
	goto	u3614
u3600:
	bcf	status, 5	;RP0=0, select bank0
	bcf	status, 6	;RP1=0, select bank0
	bcf	(70/8),(70)&7
u3614:
	line	137
	
l6858:	
;lcd(16).c: 137: RD7 = temp.bits.b3;
	rrf	(lcd_put_byte@temp),w
	movwf	(??_lcd_put_byte+0)+0
	rrf	(??_lcd_put_byte+0)+0,f
	rrf	(??_lcd_put_byte+0)+0,w
	andlw	(1<<1)-1
	movwf	(??_lcd_put_byte+1)+0
	rrf	(??_lcd_put_byte+1)+0,w
	btfsc	status,0
	goto	u3621
	goto	u3620
	
u3621:
	bcf	status, 5	;RP0=0, select bank0
	bcf	status, 6	;RP1=0, select bank0
	bsf	(71/8),(71)&7
	goto	u3634
u3620:
	bcf	status, 5	;RP0=0, select bank0
	bcf	status, 6	;RP1=0, select bank0
	bcf	(71/8),(71)&7
u3634:
	line	138
;lcd(16).c: 138: _delay((unsigned long)((20)*(20000000/4000000.0)));
	opt asmopt_off
movlw	33
movwf	(??_lcd_put_byte+0)+0,f
u4757:
decfsz	(??_lcd_put_byte+0)+0,f
	goto	u4757
opt asmopt_on

	line	139
	
l6860:	
;lcd(16).c: 139: RD3 = 1;
	bcf	status, 5	;RP0=0, select bank0
	bcf	status, 6	;RP1=0, select bank0
	bsf	(67/8),(67)&7
	line	140
;lcd(16).c: 140: _delay((unsigned long)((20)*(20000000/4000000.0)));
	opt asmopt_off
movlw	33
movwf	(??_lcd_put_byte+0)+0,f
u4767:
decfsz	(??_lcd_put_byte+0)+0,f
	goto	u4767
opt asmopt_on

	line	141
	
l6862:	
;lcd(16).c: 141: RD3 = 0;
	bcf	status, 5	;RP0=0, select bank0
	bcf	status, 6	;RP1=0, select bank0
	bcf	(67/8),(67)&7
	line	142
	
l2122:	
	return
	opt stack 0
GLOBAL	__end_of_lcd_put_byte
	__end_of_lcd_put_byte:
;; =============== function _lcd_put_byte ends ============

	signat	_lcd_put_byte,8312
	global	___awmod
psect	text550,local,class=CODE,delta=2
global __ptext550
__ptext550:

;; *************** function ___awmod *****************
;; Defined at:
;;		line 5 in file "C:\Program Files (x86)\HI-TECH Software\PICC\9.83\sources\awmod.c"
;; Parameters:    Size  Location     Type
;;  divisor         2    8[BANK0 ] int 
;;  dividend        2   10[BANK0 ] int 
;; Auto vars:     Size  Location     Type
;;  sign            1   13[BANK0 ] unsigned char 
;;  counter         1   12[BANK0 ] unsigned char 
;; Return value:  Size  Location     Type
;;                  2    8[BANK0 ] int 
;; Registers used:
;;		wreg, status,2, status,0
;; Tracked objects:
;;		On entry : 60/0
;;		On exit  : 60/0
;;		Unchanged: FFF9F/0
;; Data sizes:     COMMON   BANK0   BANK1   BANK3   BANK2
;;      Params:         0       4       0       0       0
;;      Locals:         0       2       0       0       0
;;      Temps:          0       0       0       0       0
;;      Totals:         0       6       0       0       0
;;Total ram usage:        6 bytes
;; Hardware stack levels used:    1
;; Hardware stack levels required when called:    3
;; This function calls:
;;		Nothing
;; This function is called by:
;;		_scale
;; This function uses a non-reentrant model
;;
psect	text550
	file	"C:\Program Files (x86)\HI-TECH Software\PICC\9.83\sources\awmod.c"
	line	5
	global	__size_of___awmod
	__size_of___awmod	equ	__end_of___awmod-___awmod
	
___awmod:	
	opt	stack 2
; Regs used in ___awmod: [wreg+status,2+status,0]
	line	8
	
l6686:	
	clrf	(___awmod@sign)
	line	9
	
l6688:	
	btfss	(___awmod@dividend+1),7
	goto	u3131
	goto	u3130
u3131:
	goto	l6694
u3130:
	line	10
	
l6690:	
	comf	(___awmod@dividend),f
	comf	(___awmod@dividend+1),f
	incf	(___awmod@dividend),f
	skipnz
	incf	(___awmod@dividend+1),f
	line	11
	
l6692:	
	clrf	(___awmod@sign)
	incf	(___awmod@sign),f
	line	13
	
l6694:	
	btfss	(___awmod@divisor+1),7
	goto	u3141
	goto	u3140
u3141:
	goto	l6698
u3140:
	line	14
	
l6696:	
	comf	(___awmod@divisor),f
	comf	(___awmod@divisor+1),f
	incf	(___awmod@divisor),f
	skipnz
	incf	(___awmod@divisor+1),f
	line	15
	
l6698:	
	movf	(___awmod@divisor+1),w
	iorwf	(___awmod@divisor),w
	skipnz
	goto	u3151
	goto	u3150
u3151:
	goto	l6714
u3150:
	line	16
	
l6700:	
	clrf	(___awmod@counter)
	incf	(___awmod@counter),f
	line	17
	goto	l6704
	line	18
	
l6702:	
	clrc
	rlf	(___awmod@divisor),f
	rlf	(___awmod@divisor+1),f
	line	19
	incf	(___awmod@counter),f
	line	17
	
l6704:	
	btfss	(___awmod@divisor+1),(15)&7
	goto	u3161
	goto	u3160
u3161:
	goto	l6702
u3160:
	line	22
	
l6706:	
	movf	(___awmod@divisor+1),w
	subwf	(___awmod@dividend+1),w
	skipz
	goto	u3175
	movf	(___awmod@divisor),w
	subwf	(___awmod@dividend),w
u3175:
	skipc
	goto	u3171
	goto	u3170
u3171:
	goto	l6710
u3170:
	line	23
	
l6708:	
	movf	(___awmod@divisor),w
	subwf	(___awmod@dividend),f
	movf	(___awmod@divisor+1),w
	skipc
	decf	(___awmod@dividend+1),f
	subwf	(___awmod@dividend+1),f
	line	24
	
l6710:	
	clrc
	rrf	(___awmod@divisor+1),f
	rrf	(___awmod@divisor),f
	line	25
	
l6712:	
	decfsz	(___awmod@counter),f
	goto	u3181
	goto	u3180
u3181:
	goto	l6706
u3180:
	line	27
	
l6714:	
	movf	(___awmod@sign),w
	skipz
	goto	u3190
	goto	l6718
u3190:
	line	28
	
l6716:	
	comf	(___awmod@dividend),f
	comf	(___awmod@dividend+1),f
	incf	(___awmod@dividend),f
	skipnz
	incf	(___awmod@dividend+1),f
	line	29
	
l6718:	
	movf	(___awmod@dividend+1),w
	movwf	(?___awmod+1)
	movf	(___awmod@dividend),w
	movwf	(?___awmod)
	line	30
	
l3484:	
	return
	opt stack 0
GLOBAL	__end_of___awmod
	__end_of___awmod:
;; =============== function ___awmod ends ============

	signat	___awmod,8314
	global	___lldiv
psect	text551,local,class=CODE,delta=2
global __ptext551
__ptext551:

;; *************** function ___lldiv *****************
;; Defined at:
;;		line 5 in file "C:\Program Files (x86)\HI-TECH Software\PICC\9.83\sources\lldiv.c"
;; Parameters:    Size  Location     Type
;;  divisor         4    8[BANK0 ] unsigned long 
;;  dividend        4   12[BANK0 ] unsigned long 
;; Auto vars:     Size  Location     Type
;;  quotient        4   16[BANK0 ] unsigned long 
;;  counter         1   20[BANK0 ] unsigned char 
;; Return value:  Size  Location     Type
;;                  4    8[BANK0 ] unsigned long 
;; Registers used:
;;		wreg, status,2, status,0
;; Tracked objects:
;;		On entry : 60/0
;;		On exit  : 60/0
;;		Unchanged: FFF9F/0
;; Data sizes:     COMMON   BANK0   BANK1   BANK3   BANK2
;;      Params:         0       8       0       0       0
;;      Locals:         0       5       0       0       0
;;      Temps:          0       0       0       0       0
;;      Totals:         0      13       0       0       0
;;Total ram usage:       13 bytes
;; Hardware stack levels used:    1
;; Hardware stack levels required when called:    3
;; This function calls:
;;		Nothing
;; This function is called by:
;;		_printf
;; This function uses a non-reentrant model
;;
psect	text551
	file	"C:\Program Files (x86)\HI-TECH Software\PICC\9.83\sources\lldiv.c"
	line	5
	global	__size_of___lldiv
	__size_of___lldiv	equ	__end_of___lldiv-___lldiv
	
___lldiv:	
	opt	stack 3
; Regs used in ___lldiv: [wreg+status,2+status,0]
	line	9
	
l6660:	
	clrf	(___lldiv@quotient)
	clrf	(___lldiv@quotient+1)
	clrf	(___lldiv@quotient+2)
	clrf	(___lldiv@quotient+3)
	line	10
	
l6662:	
	movf	(___lldiv@divisor+3),w
	iorwf	(___lldiv@divisor+2),w
	iorwf	(___lldiv@divisor+1),w
	iorwf	(___lldiv@divisor),w
	skipnz
	goto	u3091
	goto	u3090
u3091:
	goto	l6682
u3090:
	line	11
	
l6664:	
	clrf	(___lldiv@counter)
	incf	(___lldiv@counter),f
	line	12
	goto	l6668
	line	13
	
l6666:	
	clrc
	rlf	(___lldiv@divisor),f
	rlf	(___lldiv@divisor+1),f
	rlf	(___lldiv@divisor+2),f
	rlf	(___lldiv@divisor+3),f
	line	14
	incf	(___lldiv@counter),f
	line	12
	
l6668:	
	btfss	(___lldiv@divisor+3),(31)&7
	goto	u3101
	goto	u3100
u3101:
	goto	l6666
u3100:
	line	17
	
l6670:	
	clrc
	rlf	(___lldiv@quotient),f
	rlf	(___lldiv@quotient+1),f
	rlf	(___lldiv@quotient+2),f
	rlf	(___lldiv@quotient+3),f
	line	18
	
l6672:	
	movf	(___lldiv@divisor+3),w
	subwf	(___lldiv@dividend+3),w
	skipz
	goto	u3115
	movf	(___lldiv@divisor+2),w
	subwf	(___lldiv@dividend+2),w
	skipz
	goto	u3115
	movf	(___lldiv@divisor+1),w
	subwf	(___lldiv@dividend+1),w
	skipz
	goto	u3115
	movf	(___lldiv@divisor),w
	subwf	(___lldiv@dividend),w
u3115:
	skipc
	goto	u3111
	goto	u3110
u3111:
	goto	l6678
u3110:
	line	19
	
l6674:	
	movf	(___lldiv@divisor),w
	subwf	(___lldiv@dividend),f
	movf	(___lldiv@divisor+1),w
	skipc
	incfsz	(___lldiv@divisor+1),w
	subwf	(___lldiv@dividend+1),f
	movf	(___lldiv@divisor+2),w
	skipc
	incfsz	(___lldiv@divisor+2),w
	subwf	(___lldiv@dividend+2),f
	movf	(___lldiv@divisor+3),w
	skipc
	incfsz	(___lldiv@divisor+3),w
	subwf	(___lldiv@dividend+3),f
	line	20
	
l6676:	
	bsf	(___lldiv@quotient)+(0/8),(0)&7
	line	22
	
l6678:	
	clrc
	rrf	(___lldiv@divisor+3),f
	rrf	(___lldiv@divisor+2),f
	rrf	(___lldiv@divisor+1),f
	rrf	(___lldiv@divisor),f
	line	23
	
l6680:	
	decfsz	(___lldiv@counter),f
	goto	u3121
	goto	u3120
u3121:
	goto	l6670
u3120:
	line	25
	
l6682:	
	movf	(___lldiv@quotient+3),w
	movwf	(?___lldiv+3)
	movf	(___lldiv@quotient+2),w
	movwf	(?___lldiv+2)
	movf	(___lldiv@quotient+1),w
	movwf	(?___lldiv+1)
	movf	(___lldiv@quotient),w
	movwf	(?___lldiv)

	line	26
	
l3445:	
	return
	opt stack 0
GLOBAL	__end_of___lldiv
	__end_of___lldiv:
;; =============== function ___lldiv ends ============

	signat	___lldiv,8316
	global	___ftge
psect	text552,local,class=CODE,delta=2
global __ptext552
__ptext552:

;; *************** function ___ftge *****************
;; Defined at:
;;		line 5 in file "C:\Program Files (x86)\HI-TECH Software\PICC\9.83\sources\ftge.c"
;; Parameters:    Size  Location     Type
;;  ff1             3    8[BANK0 ] float 
;;  ff2             3   11[BANK0 ] float 
;; Auto vars:     Size  Location     Type
;;		None
;; Return value:  Size  Location     Type
;;		None               void
;; Registers used:
;;		wreg, status,2, status,0
;; Tracked objects:
;;		On entry : 60/0
;;		On exit  : 60/0
;;		Unchanged: FFF9F/0
;; Data sizes:     COMMON   BANK0   BANK1   BANK3   BANK2
;;      Params:         0       6       0       0       0
;;      Locals:         0       0       0       0       0
;;      Temps:          0       0       0       0       0
;;      Totals:         0       6       0       0       0
;;Total ram usage:        6 bytes
;; Hardware stack levels used:    1
;; Hardware stack levels required when called:    3
;; This function calls:
;;		Nothing
;; This function is called by:
;;		_printf
;; This function uses a non-reentrant model
;;
psect	text552
	file	"C:\Program Files (x86)\HI-TECH Software\PICC\9.83\sources\ftge.c"
	line	5
	global	__size_of___ftge
	__size_of___ftge	equ	__end_of___ftge-___ftge
	
___ftge:	
	opt	stack 3
; Regs used in ___ftge: [wreg+status,2+status,0]
	line	6
	
l6640:	
	btfss	(___ftge@ff1+2),(23)&7
	goto	u3061
	goto	u3060
u3061:
	goto	l6644
u3060:
	line	7
	
l6642:	
	movf	(___ftge@ff1),w
	sublw	0
	movwf	(___ftge@ff1)
	movf	(___ftge@ff1+1),w
	skipc
	incfsz	(___ftge@ff1+1),w
	sublw	0
	movwf	1+(___ftge@ff1)
	movf	(___ftge@ff1+2),w
	skipc
	incfsz	(___ftge@ff1+2),w
	sublw	080h
	movwf	2+(___ftge@ff1)
	line	8
	
l6644:	
	btfss	(___ftge@ff2+2),(23)&7
	goto	u3071
	goto	u3070
u3071:
	goto	l6648
u3070:
	line	9
	
l6646:	
	movf	(___ftge@ff2),w
	sublw	0
	movwf	(___ftge@ff2)
	movf	(___ftge@ff2+1),w
	skipc
	incfsz	(___ftge@ff2+1),w
	sublw	0
	movwf	1+(___ftge@ff2)
	movf	(___ftge@ff2+2),w
	skipc
	incfsz	(___ftge@ff2+2),w
	sublw	080h
	movwf	2+(___ftge@ff2)
	line	10
	
l6648:	
	movlw	080h
	xorwf	(___ftge@ff1+2),f
	line	11
	
l6650:	
	movlw	080h
	xorwf	(___ftge@ff2+2),f
	line	12
	
l6652:	
	movf	(___ftge@ff2+2),w
	subwf	(___ftge@ff1+2),w
	skipz
	goto	u3085
	movf	(___ftge@ff2+1),w
	subwf	(___ftge@ff1+1),w
	skipz
	goto	u3085
	movf	(___ftge@ff2),w
	subwf	(___ftge@ff1),w
u3085:
	skipnc
	goto	u3081
	goto	u3080
u3081:
	goto	l6656
u3080:
	
l6654:	
	clrc
	
	goto	l3435
	
l6656:	
	setc
	
	line	13
	
l3435:	
	return
	opt stack 0
GLOBAL	__end_of___ftge
	__end_of___ftge:
;; =============== function ___ftge ends ============

	signat	___ftge,8312
	global	___ftneg
psect	text553,local,class=CODE,delta=2
global __ptext553
__ptext553:

;; *************** function ___ftneg *****************
;; Defined at:
;;		line 16 in file "C:\Program Files (x86)\HI-TECH Software\PICC\9.83\sources\ftneg.c"
;; Parameters:    Size  Location     Type
;;  f1              3    8[BANK0 ] float 
;; Auto vars:     Size  Location     Type
;;		None
;; Return value:  Size  Location     Type
;;                  3    8[BANK0 ] float 
;; Registers used:
;;		wreg
;; Tracked objects:
;;		On entry : 160/0
;;		On exit  : 160/0
;;		Unchanged: FFE9F/0
;; Data sizes:     COMMON   BANK0   BANK1   BANK3   BANK2
;;      Params:         0       3       0       0       0
;;      Locals:         0       0       0       0       0
;;      Temps:          0       0       0       0       0
;;      Totals:         0       3       0       0       0
;;Total ram usage:        3 bytes
;; Hardware stack levels used:    1
;; Hardware stack levels required when called:    3
;; This function calls:
;;		Nothing
;; This function is called by:
;;		_printf
;; This function uses a non-reentrant model
;;
psect	text553
	file	"C:\Program Files (x86)\HI-TECH Software\PICC\9.83\sources\ftneg.c"
	line	16
	global	__size_of___ftneg
	__size_of___ftneg	equ	__end_of___ftneg-___ftneg
	
___ftneg:	
	opt	stack 3
; Regs used in ___ftneg: [wreg]
	line	17
	
l6632:	
	movf	(___ftneg@f1+2),w
	iorwf	(___ftneg@f1+1),w
	iorwf	(___ftneg@f1),w
	skipnz
	goto	u3051
	goto	u3050
u3051:
	goto	l6636
u3050:
	line	18
	
l6634:	
	movlw	080h
	xorwf	(___ftneg@f1+2),f
	line	19
	
l6636:	
	line	20
	
l3430:	
	return
	opt stack 0
GLOBAL	__end_of___ftneg
	__end_of___ftneg:
;; =============== function ___ftneg ends ============

	signat	___ftneg,4219
	global	___llmod
psect	text554,local,class=CODE,delta=2
global __ptext554
__ptext554:

;; *************** function ___llmod *****************
;; Defined at:
;;		line 5 in file "C:\Program Files (x86)\HI-TECH Software\PICC\9.83\sources\llmod.c"
;; Parameters:    Size  Location     Type
;;  divisor         4   21[BANK0 ] unsigned long 
;;  dividend        4   25[BANK0 ] unsigned long 
;; Auto vars:     Size  Location     Type
;;  counter         1   29[BANK0 ] unsigned char 
;; Return value:  Size  Location     Type
;;                  4   21[BANK0 ] unsigned long 
;; Registers used:
;;		wreg, status,2, status,0
;; Tracked objects:
;;		On entry : 60/0
;;		On exit  : 60/0
;;		Unchanged: FFF9F/0
;; Data sizes:     COMMON   BANK0   BANK1   BANK3   BANK2
;;      Params:         0       8       0       0       0
;;      Locals:         0       1       0       0       0
;;      Temps:          0       0       0       0       0
;;      Totals:         0       9       0       0       0
;;Total ram usage:        9 bytes
;; Hardware stack levels used:    1
;; Hardware stack levels required when called:    3
;; This function calls:
;;		Nothing
;; This function is called by:
;;		_printf
;; This function uses a non-reentrant model
;;
psect	text554
	file	"C:\Program Files (x86)\HI-TECH Software\PICC\9.83\sources\llmod.c"
	line	5
	global	__size_of___llmod
	__size_of___llmod	equ	__end_of___llmod-___llmod
	
___llmod:	
	opt	stack 3
; Regs used in ___llmod: [wreg+status,2+status,0]
	line	8
	
l6612:	
	movf	(___llmod@divisor+3),w
	iorwf	(___llmod@divisor+2),w
	iorwf	(___llmod@divisor+1),w
	iorwf	(___llmod@divisor),w
	skipnz
	goto	u3011
	goto	u3010
u3011:
	goto	l6628
u3010:
	line	9
	
l6614:	
	clrf	(___llmod@counter)
	incf	(___llmod@counter),f
	line	10
	goto	l6618
	line	11
	
l6616:	
	clrc
	rlf	(___llmod@divisor),f
	rlf	(___llmod@divisor+1),f
	rlf	(___llmod@divisor+2),f
	rlf	(___llmod@divisor+3),f
	line	12
	incf	(___llmod@counter),f
	line	10
	
l6618:	
	btfss	(___llmod@divisor+3),(31)&7
	goto	u3021
	goto	u3020
u3021:
	goto	l6616
u3020:
	line	15
	
l6620:	
	movf	(___llmod@divisor+3),w
	subwf	(___llmod@dividend+3),w
	skipz
	goto	u3035
	movf	(___llmod@divisor+2),w
	subwf	(___llmod@dividend+2),w
	skipz
	goto	u3035
	movf	(___llmod@divisor+1),w
	subwf	(___llmod@dividend+1),w
	skipz
	goto	u3035
	movf	(___llmod@divisor),w
	subwf	(___llmod@dividend),w
u3035:
	skipc
	goto	u3031
	goto	u3030
u3031:
	goto	l6624
u3030:
	line	16
	
l6622:	
	movf	(___llmod@divisor),w
	subwf	(___llmod@dividend),f
	movf	(___llmod@divisor+1),w
	skipc
	incfsz	(___llmod@divisor+1),w
	subwf	(___llmod@dividend+1),f
	movf	(___llmod@divisor+2),w
	skipc
	incfsz	(___llmod@divisor+2),w
	subwf	(___llmod@dividend+2),f
	movf	(___llmod@divisor+3),w
	skipc
	incfsz	(___llmod@divisor+3),w
	subwf	(___llmod@dividend+3),f
	line	17
	
l6624:	
	clrc
	rrf	(___llmod@divisor+3),f
	rrf	(___llmod@divisor+2),f
	rrf	(___llmod@divisor+1),f
	rrf	(___llmod@divisor),f
	line	18
	
l6626:	
	decfsz	(___llmod@counter),f
	goto	u3041
	goto	u3040
u3041:
	goto	l6620
u3040:
	line	20
	
l6628:	
	movf	(___llmod@dividend+3),w
	movwf	(?___llmod+3)
	movf	(___llmod@dividend+2),w
	movwf	(?___llmod+2)
	movf	(___llmod@dividend+1),w
	movwf	(?___llmod+1)
	movf	(___llmod@dividend),w
	movwf	(?___llmod)

	line	21
	
l3426:	
	return
	opt stack 0
GLOBAL	__end_of___llmod
	__end_of___llmod:
;; =============== function ___llmod ends ============

	signat	___llmod,8316
	global	___awdiv
psect	text555,local,class=CODE,delta=2
global __ptext555
__ptext555:

;; *************** function ___awdiv *****************
;; Defined at:
;;		line 5 in file "C:\Program Files (x86)\HI-TECH Software\PICC\9.83\sources\awdiv.c"
;; Parameters:    Size  Location     Type
;;  divisor         2   14[BANK0 ] int 
;;  dividend        2   16[BANK0 ] int 
;; Auto vars:     Size  Location     Type
;;  quotient        2   20[BANK0 ] int 
;;  sign            1   19[BANK0 ] unsigned char 
;;  counter         1   18[BANK0 ] unsigned char 
;; Return value:  Size  Location     Type
;;                  2   14[BANK0 ] int 
;; Registers used:
;;		wreg, status,2, status,0
;; Tracked objects:
;;		On entry : 60/0
;;		On exit  : 60/0
;;		Unchanged: FFF9F/0
;; Data sizes:     COMMON   BANK0   BANK1   BANK3   BANK2
;;      Params:         0       4       0       0       0
;;      Locals:         0       4       0       0       0
;;      Temps:          0       0       0       0       0
;;      Totals:         0       8       0       0       0
;;Total ram usage:        8 bytes
;; Hardware stack levels used:    1
;; Hardware stack levels required when called:    3
;; This function calls:
;;		Nothing
;; This function is called by:
;;		_scale
;;		_printf
;; This function uses a non-reentrant model
;;
psect	text555
	file	"C:\Program Files (x86)\HI-TECH Software\PICC\9.83\sources\awdiv.c"
	line	5
	global	__size_of___awdiv
	__size_of___awdiv	equ	__end_of___awdiv-___awdiv
	
___awdiv:	
	opt	stack 2
; Regs used in ___awdiv: [wreg+status,2+status,0]
	line	9
	
l6568:	
	clrf	(___awdiv@sign)
	line	10
	
l6570:	
	btfss	(___awdiv@divisor+1),7
	goto	u2941
	goto	u2940
u2941:
	goto	l6576
u2940:
	line	11
	
l6572:	
	comf	(___awdiv@divisor),f
	comf	(___awdiv@divisor+1),f
	incf	(___awdiv@divisor),f
	skipnz
	incf	(___awdiv@divisor+1),f
	line	12
	
l6574:	
	clrf	(___awdiv@sign)
	incf	(___awdiv@sign),f
	line	14
	
l6576:	
	btfss	(___awdiv@dividend+1),7
	goto	u2951
	goto	u2950
u2951:
	goto	l6582
u2950:
	line	15
	
l6578:	
	comf	(___awdiv@dividend),f
	comf	(___awdiv@dividend+1),f
	incf	(___awdiv@dividend),f
	skipnz
	incf	(___awdiv@dividend+1),f
	line	16
	
l6580:	
	movlw	(01h)
	xorwf	(___awdiv@sign),f
	line	18
	
l6582:	
	clrf	(___awdiv@quotient)
	clrf	(___awdiv@quotient+1)
	line	19
	
l6584:	
	movf	(___awdiv@divisor+1),w
	iorwf	(___awdiv@divisor),w
	skipnz
	goto	u2961
	goto	u2960
u2961:
	goto	l6604
u2960:
	line	20
	
l6586:	
	clrf	(___awdiv@counter)
	incf	(___awdiv@counter),f
	line	21
	goto	l6590
	line	22
	
l6588:	
	clrc
	rlf	(___awdiv@divisor),f
	rlf	(___awdiv@divisor+1),f
	line	23
	incf	(___awdiv@counter),f
	line	21
	
l6590:	
	btfss	(___awdiv@divisor+1),(15)&7
	goto	u2971
	goto	u2970
u2971:
	goto	l6588
u2970:
	line	26
	
l6592:	
	clrc
	rlf	(___awdiv@quotient),f
	rlf	(___awdiv@quotient+1),f
	line	27
	
l6594:	
	movf	(___awdiv@divisor+1),w
	subwf	(___awdiv@dividend+1),w
	skipz
	goto	u2985
	movf	(___awdiv@divisor),w
	subwf	(___awdiv@dividend),w
u2985:
	skipc
	goto	u2981
	goto	u2980
u2981:
	goto	l6600
u2980:
	line	28
	
l6596:	
	movf	(___awdiv@divisor),w
	subwf	(___awdiv@dividend),f
	movf	(___awdiv@divisor+1),w
	skipc
	decf	(___awdiv@dividend+1),f
	subwf	(___awdiv@dividend+1),f
	line	29
	
l6598:	
	bsf	(___awdiv@quotient)+(0/8),(0)&7
	line	31
	
l6600:	
	clrc
	rrf	(___awdiv@divisor+1),f
	rrf	(___awdiv@divisor),f
	line	32
	
l6602:	
	decfsz	(___awdiv@counter),f
	goto	u2991
	goto	u2990
u2991:
	goto	l6592
u2990:
	line	34
	
l6604:	
	movf	(___awdiv@sign),w
	skipz
	goto	u3000
	goto	l6608
u3000:
	line	35
	
l6606:	
	comf	(___awdiv@quotient),f
	comf	(___awdiv@quotient+1),f
	incf	(___awdiv@quotient),f
	skipnz
	incf	(___awdiv@quotient+1),f
	line	36
	
l6608:	
	movf	(___awdiv@quotient+1),w
	movwf	(?___awdiv+1)
	movf	(___awdiv@quotient),w
	movwf	(?___awdiv)
	line	37
	
l3416:	
	return
	opt stack 0
GLOBAL	__end_of___awdiv
	__end_of___awdiv:
;; =============== function ___awdiv ends ============

	signat	___awdiv,8314
	global	___fttol
psect	text556,local,class=CODE,delta=2
global __ptext556
__ptext556:

;; *************** function ___fttol *****************
;; Defined at:
;;		line 45 in file "C:\Program Files (x86)\HI-TECH Software\PICC\9.83\sources\fttol.c"
;; Parameters:    Size  Location     Type
;;  f1              3   22[BANK0 ] float 
;; Auto vars:     Size  Location     Type
;;  lval            4   30[BANK0 ] unsigned long 
;;  exp1            1   34[BANK0 ] unsigned char 
;;  sign1           1   29[BANK0 ] unsigned char 
;; Return value:  Size  Location     Type
;;                  4   22[BANK0 ] long 
;; Registers used:
;;		wreg, status,2, status,0
;; Tracked objects:
;;		On entry : 60/0
;;		On exit  : 60/0
;;		Unchanged: FFF9F/0
;; Data sizes:     COMMON   BANK0   BANK1   BANK3   BANK2
;;      Params:         0       4       0       0       0
;;      Locals:         0       6       0       0       0
;;      Temps:          0       3       0       0       0
;;      Totals:         0      13       0       0       0
;;Total ram usage:       13 bytes
;; Hardware stack levels used:    1
;; Hardware stack levels required when called:    3
;; This function calls:
;;		Nothing
;; This function is called by:
;;		_printf
;; This function uses a non-reentrant model
;;
psect	text556
	file	"C:\Program Files (x86)\HI-TECH Software\PICC\9.83\sources\fttol.c"
	line	45
	global	__size_of___fttol
	__size_of___fttol	equ	__end_of___fttol-___fttol
	
___fttol:	
	opt	stack 3
; Regs used in ___fttol: [wreg+status,2+status,0]
	line	49
	
l6530:	
	movf	(___fttol@f1),w
	movwf	((??___fttol+0)+0)
	movf	(___fttol@f1+1),w
	movwf	((??___fttol+0)+0+1)
	movf	(___fttol@f1+2),w
	movwf	((??___fttol+0)+0+2)
	clrc
	rlf	(??___fttol+0)+1,w
	rlf	(??___fttol+0)+2,w
	movwf	(___fttol@exp1)
	movf	((___fttol@exp1)),f
	skipz
	goto	u2861
	goto	u2860
u2861:
	goto	l6534
u2860:
	line	50
	
l6532:	
	clrf	(?___fttol)
	clrf	(?___fttol+1)
	clrf	(?___fttol+2)
	clrf	(?___fttol+3)
	goto	l3376
	line	51
	
l6534:	
	movf	(___fttol@f1),w
	movwf	((??___fttol+0)+0)
	movf	(___fttol@f1+1),w
	movwf	((??___fttol+0)+0+1)
	movf	(___fttol@f1+2),w
	movwf	((??___fttol+0)+0+2)
	movlw	017h
u2875:
	clrc
	rrf	(??___fttol+0)+2,f
	rrf	(??___fttol+0)+1,f
	rrf	(??___fttol+0)+0,f
u2870:
	addlw	-1
	skipz
	goto	u2875
	movf	0+(??___fttol+0)+0,w
	movwf	(___fttol@sign1)
	line	52
	
l6536:	
	bsf	(___fttol@f1)+(15/8),(15)&7
	line	53
	
l6538:	
	movlw	0FFh
	andwf	(___fttol@f1),f
	movlw	0FFh
	andwf	(___fttol@f1+1),f
	movlw	0
	andwf	(___fttol@f1+2),f
	line	54
	
l6540:	
	movf	(___fttol@f1),w
	movwf	(___fttol@lval)
	movf	(___fttol@f1+1),w
	movwf	((___fttol@lval))+1
	movf	(___fttol@f1+2),w
	movwf	((___fttol@lval))+2
	clrf	((___fttol@lval))+3
	line	55
	
l6542:	
	movlw	low(08Eh)
	subwf	(___fttol@exp1),f
	line	56
	
l6544:	
	btfss	(___fttol@exp1),7
	goto	u2881
	goto	u2880
u2881:
	goto	l6554
u2880:
	line	57
	
l6546:	
	movf	(___fttol@exp1),w
	xorlw	80h
	addlw	-((-15)^80h)
	skipnc
	goto	u2891
	goto	u2890
u2891:
	goto	l6550
u2890:
	goto	l6532
	line	60
	
l6550:	
	clrc
	rrf	(___fttol@lval+3),f
	rrf	(___fttol@lval+2),f
	rrf	(___fttol@lval+1),f
	rrf	(___fttol@lval),f
	line	61
	
l6552:	
	incfsz	(___fttol@exp1),f
	goto	u2901
	goto	u2900
u2901:
	goto	l6550
u2900:
	goto	l6560
	line	63
	
l6554:	
	movlw	(018h)
	subwf	(___fttol@exp1),w
	skipc
	goto	u2911
	goto	u2910
u2911:
	goto	l3383
u2910:
	goto	l6532
	line	66
	
l6558:	
	clrc
	rlf	(___fttol@lval),f
	rlf	(___fttol@lval+1),f
	rlf	(___fttol@lval+2),f
	rlf	(___fttol@lval+3),f
	line	67
	decf	(___fttol@exp1),f
	line	68
	
l3383:	
	line	65
	movf	(___fttol@exp1),f
	skipz
	goto	u2921
	goto	u2920
u2921:
	goto	l6558
u2920:
	line	70
	
l6560:	
	movf	(___fttol@sign1),w
	skipz
	goto	u2930
	goto	l6564
u2930:
	line	71
	
l6562:	
	comf	(___fttol@lval),f
	comf	(___fttol@lval+1),f
	comf	(___fttol@lval+2),f
	comf	(___fttol@lval+3),f
	incf	(___fttol@lval),f
	skipnz
	incf	(___fttol@lval+1),f
	skipnz
	incf	(___fttol@lval+2),f
	skipnz
	incf	(___fttol@lval+3),f
	line	72
	
l6564:	
	movf	(___fttol@lval+3),w
	movwf	(?___fttol+3)
	movf	(___fttol@lval+2),w
	movwf	(?___fttol+2)
	movf	(___fttol@lval+1),w
	movwf	(?___fttol+1)
	movf	(___fttol@lval),w
	movwf	(?___fttol)

	line	73
	
l3376:	
	return
	opt stack 0
GLOBAL	__end_of___fttol
	__end_of___fttol:
;; =============== function ___fttol ends ============

	signat	___fttol,4220
	global	___ftpack
psect	text557,local,class=CODE,delta=2
global __ptext557
__ptext557:

;; *************** function ___ftpack *****************
;; Defined at:
;;		line 63 in file "C:\Program Files (x86)\HI-TECH Software\PICC\9.83\sources\float.c"
;; Parameters:    Size  Location     Type
;;  arg             3    8[BANK0 ] unsigned um
;;  exp             1   11[BANK0 ] unsigned char 
;;  sign            1   12[BANK0 ] unsigned char 
;; Auto vars:     Size  Location     Type
;;		None
;; Return value:  Size  Location     Type
;;                  3    8[BANK0 ] float 
;; Registers used:
;;		wreg, status,2, status,0
;; Tracked objects:
;;		On entry : 60/0
;;		On exit  : 60/0
;;		Unchanged: FFF9F/0
;; Data sizes:     COMMON   BANK0   BANK1   BANK3   BANK2
;;      Params:         0       5       0       0       0
;;      Locals:         0       0       0       0       0
;;      Temps:          0       3       0       0       0
;;      Totals:         0       8       0       0       0
;;Total ram usage:        8 bytes
;; Hardware stack levels used:    1
;; Hardware stack levels required when called:    3
;; This function calls:
;;		Nothing
;; This function is called by:
;;		___ftadd
;;		___ftdiv
;;		___ftmul
;;		___lbtoft
;;		___lltoft
;; This function uses a non-reentrant model
;;
psect	text557
	file	"C:\Program Files (x86)\HI-TECH Software\PICC\9.83\sources\float.c"
	line	63
	global	__size_of___ftpack
	__size_of___ftpack	equ	__end_of___ftpack-___ftpack
	
___ftpack:	
	opt	stack 1
; Regs used in ___ftpack: [wreg+status,2+status,0]
	line	64
	
l6502:	
	movf	(___ftpack@exp),w
	skipz
	goto	u2790
	goto	l6506
u2790:
	
l6504:	
	movf	(___ftpack@arg+2),w
	iorwf	(___ftpack@arg+1),w
	iorwf	(___ftpack@arg),w
	skipz
	goto	u2801
	goto	u2800
u2801:
	goto	l6512
u2800:
	line	65
	
l6506:	
	clrf	(?___ftpack)
	clrf	(?___ftpack+1)
	clrf	(?___ftpack+2)
	goto	l3635
	line	67
	
l6510:	
	incf	(___ftpack@exp),f
	line	68
	clrc
	rrf	(___ftpack@arg+2),f
	rrf	(___ftpack@arg+1),f
	rrf	(___ftpack@arg),f
	line	66
	
l6512:	
	movlw	low highword(0FE0000h)
	andwf	(___ftpack@arg+2),w
	btfss	status,2
	goto	u2811
	goto	u2810
u2811:
	goto	l6510
u2810:
	goto	l6516
	line	71
	
l6514:	
	incf	(___ftpack@exp),f
	line	72
	incf	(___ftpack@arg),f
	skipnz
	incf	(___ftpack@arg+1),f
	skipnz
	incf	(___ftpack@arg+2),f
	line	73
	clrc
	rrf	(___ftpack@arg+2),f
	rrf	(___ftpack@arg+1),f
	rrf	(___ftpack@arg),f
	line	70
	
l6516:	
	movlw	low highword(0FF0000h)
	andwf	(___ftpack@arg+2),w
	btfss	status,2
	goto	u2821
	goto	u2820
u2821:
	goto	l6514
u2820:
	goto	l6520
	line	76
	
l6518:	
	decf	(___ftpack@exp),f
	line	77
	clrc
	rlf	(___ftpack@arg),f
	rlf	(___ftpack@arg+1),f
	rlf	(___ftpack@arg+2),f
	line	75
	
l6520:	
	btfss	(___ftpack@arg+1),(15)&7
	goto	u2831
	goto	u2830
u2831:
	goto	l6518
u2830:
	
l3644:	
	line	79
	btfsc	(___ftpack@exp),(0)&7
	goto	u2841
	goto	u2840
u2841:
	goto	l3645
u2840:
	line	80
	
l6522:	
	bcf	(___ftpack@arg)+(15/8),(15)&7
	
l3645:	
	line	81
	clrc
	rrf	(___ftpack@exp),f
	line	82
	
l6524:	
	movf	(___ftpack@exp),w
	movwf	((??___ftpack+0)+0+2)
	clrf	((??___ftpack+0)+0+1)
	clrf	((??___ftpack+0)+0+0)
	movf	0+(??___ftpack+0)+0,w
	iorwf	(___ftpack@arg),f
	movf	1+(??___ftpack+0)+0,w
	iorwf	(___ftpack@arg+1),f
	movf	2+(??___ftpack+0)+0,w
	iorwf	(___ftpack@arg+2),f
	line	83
	
l6526:	
	movf	(___ftpack@sign),w
	skipz
	goto	u2850
	goto	l3646
u2850:
	line	84
	
l6528:	
	bsf	(___ftpack@arg)+(23/8),(23)&7
	
l3646:	
	line	85
	line	86
	
l3635:	
	return
	opt stack 0
GLOBAL	__end_of___ftpack
	__end_of___ftpack:
;; =============== function ___ftpack ends ============

	signat	___ftpack,12411
	global	___lbmod
psect	text558,local,class=CODE,delta=2
global __ptext558
__ptext558:

;; *************** function ___lbmod *****************
;; Defined at:
;;		line 5 in file "C:\Program Files (x86)\HI-TECH Software\PICC\9.83\sources\lbmod.c"
;; Parameters:    Size  Location     Type
;;  dividend        1    wreg     unsigned char 
;;  divisor         1    8[BANK0 ] unsigned char 
;; Auto vars:     Size  Location     Type
;;  dividend        1   10[BANK0 ] unsigned char 
;;  rem             1   12[BANK0 ] unsigned char 
;;  counter         1   11[BANK0 ] unsigned char 
;; Return value:  Size  Location     Type
;;                  1    wreg      unsigned char 
;; Registers used:
;;		wreg, status,2, status,0
;; Tracked objects:
;;		On entry : 60/0
;;		On exit  : 60/0
;;		Unchanged: FFF9F/0
;; Data sizes:     COMMON   BANK0   BANK1   BANK3   BANK2
;;      Params:         0       1       0       0       0
;;      Locals:         0       3       0       0       0
;;      Temps:          0       1       0       0       0
;;      Totals:         0       5       0       0       0
;;Total ram usage:        5 bytes
;; Hardware stack levels used:    1
;; Hardware stack levels required when called:    3
;; This function calls:
;;		Nothing
;; This function is called by:
;;		_fround
;; This function uses a non-reentrant model
;;
psect	text558
	file	"C:\Program Files (x86)\HI-TECH Software\PICC\9.83\sources\lbmod.c"
	line	5
	global	__size_of___lbmod
	__size_of___lbmod	equ	__end_of___lbmod-___lbmod
	
___lbmod:	
	opt	stack 2
; Regs used in ___lbmod: [wreg+status,2+status,0]
;___lbmod@dividend stored from wreg
	line	9
	movwf	(___lbmod@dividend)
	
l6484:	
	movlw	(08h)
	movwf	(___lbmod@counter)
	line	10
	
l6486:	
	clrf	(___lbmod@rem)
	line	12
	
l6488:	
	movf	(___lbmod@dividend),w
	movwf	(??___lbmod+0)+0
	movlw	07h
u2765:
	clrc
	rrf	(??___lbmod+0)+0,f
	addlw	-1
	skipz
	goto	u2765
	clrc
	rlf	(___lbmod@rem),w
	iorwf	0+(??___lbmod+0)+0,w
	movwf	(___lbmod@rem)
	line	13
	
l6490:	
	clrc
	rlf	(___lbmod@dividend),f
	line	14
	
l6492:	
	movf	(___lbmod@divisor),w
	subwf	(___lbmod@rem),w
	skipc
	goto	u2771
	goto	u2770
u2771:
	goto	l6496
u2770:
	line	15
	
l6494:	
	movf	(___lbmod@divisor),w
	subwf	(___lbmod@rem),f
	line	16
	
l6496:	
	decfsz	(___lbmod@counter),f
	goto	u2781
	goto	u2780
u2781:
	goto	l6488
u2780:
	line	17
	
l6498:	
	movf	(___lbmod@rem),w
	line	18
	
l3305:	
	return
	opt stack 0
GLOBAL	__end_of___lbmod
	__end_of___lbmod:
;; =============== function ___lbmod ends ============

	signat	___lbmod,8313
	global	___lbdiv
psect	text559,local,class=CODE,delta=2
global __ptext559
__ptext559:

;; *************** function ___lbdiv *****************
;; Defined at:
;;		line 5 in file "C:\Program Files (x86)\HI-TECH Software\PICC\9.83\sources\lbdiv.c"
;; Parameters:    Size  Location     Type
;;  dividend        1    wreg     unsigned char 
;;  divisor         1   13[BANK0 ] unsigned char 
;; Auto vars:     Size  Location     Type
;;  dividend        1   14[BANK0 ] unsigned char 
;;  quotient        1   16[BANK0 ] unsigned char 
;;  counter         1   15[BANK0 ] unsigned char 
;; Return value:  Size  Location     Type
;;                  1    wreg      unsigned char 
;; Registers used:
;;		wreg, status,2, status,0
;; Tracked objects:
;;		On entry : 60/0
;;		On exit  : 60/0
;;		Unchanged: FFF9F/0
;; Data sizes:     COMMON   BANK0   BANK1   BANK3   BANK2
;;      Params:         0       1       0       0       0
;;      Locals:         0       3       0       0       0
;;      Temps:          0       0       0       0       0
;;      Totals:         0       4       0       0       0
;;Total ram usage:        4 bytes
;; Hardware stack levels used:    1
;; Hardware stack levels required when called:    3
;; This function calls:
;;		Nothing
;; This function is called by:
;;		_fround
;; This function uses a non-reentrant model
;;
psect	text559
	file	"C:\Program Files (x86)\HI-TECH Software\PICC\9.83\sources\lbdiv.c"
	line	5
	global	__size_of___lbdiv
	__size_of___lbdiv	equ	__end_of___lbdiv-___lbdiv
	
___lbdiv:	
	opt	stack 2
; Regs used in ___lbdiv: [wreg+status,2+status,0]
;___lbdiv@dividend stored from wreg
	line	9
	movwf	(___lbdiv@dividend)
	
l6460:	
	clrf	(___lbdiv@quotient)
	line	10
	
l6462:	
	movf	(___lbdiv@divisor),w
	skipz
	goto	u2720
	goto	l6480
u2720:
	line	11
	
l6464:	
	clrf	(___lbdiv@counter)
	incf	(___lbdiv@counter),f
	line	12
	goto	l6468
	
l3294:	
	line	13
	clrc
	rlf	(___lbdiv@divisor),f
	line	14
	
l6466:	
	incf	(___lbdiv@counter),f
	line	12
	
l6468:	
	btfss	(___lbdiv@divisor),(7)&7
	goto	u2731
	goto	u2730
u2731:
	goto	l3294
u2730:
	line	16
	
l3296:	
	line	17
	clrc
	rlf	(___lbdiv@quotient),f
	line	18
	
l6470:	
	movf	(___lbdiv@divisor),w
	subwf	(___lbdiv@dividend),w
	skipc
	goto	u2741
	goto	u2740
u2741:
	goto	l6476
u2740:
	line	19
	
l6472:	
	movf	(___lbdiv@divisor),w
	subwf	(___lbdiv@dividend),f
	line	20
	
l6474:	
	bsf	(___lbdiv@quotient)+(0/8),(0)&7
	line	22
	
l6476:	
	clrc
	rrf	(___lbdiv@divisor),f
	line	23
	
l6478:	
	decfsz	(___lbdiv@counter),f
	goto	u2751
	goto	u2750
u2751:
	goto	l3296
u2750:
	line	25
	
l6480:	
	movf	(___lbdiv@quotient),w
	line	26
	
l3299:	
	return
	opt stack 0
GLOBAL	__end_of___lbdiv
	__end_of___lbdiv:
;; =============== function ___lbdiv ends ============

	signat	___lbdiv,8313
	global	___wmul
psect	text560,local,class=CODE,delta=2
global __ptext560
__ptext560:

;; *************** function ___wmul *****************
;; Defined at:
;;		line 3 in file "C:\Program Files (x86)\HI-TECH Software\PICC\9.83\sources\wmul.c"
;; Parameters:    Size  Location     Type
;;  multiplier      2    8[BANK0 ] unsigned int 
;;  multiplicand    2   10[BANK0 ] unsigned int 
;; Auto vars:     Size  Location     Type
;;  product         2   12[BANK0 ] unsigned int 
;; Return value:  Size  Location     Type
;;                  2    8[BANK0 ] unsigned int 
;; Registers used:
;;		wreg, status,2, status,0
;; Tracked objects:
;;		On entry : 60/0
;;		On exit  : 60/0
;;		Unchanged: FFF9F/0
;; Data sizes:     COMMON   BANK0   BANK1   BANK3   BANK2
;;      Params:         0       4       0       0       0
;;      Locals:         0       2       0       0       0
;;      Temps:          0       0       0       0       0
;;      Totals:         0       6       0       0       0
;;Total ram usage:        6 bytes
;; Hardware stack levels used:    1
;; Hardware stack levels required when called:    3
;; This function calls:
;;		Nothing
;; This function is called by:
;;		_fround
;;		_scale
;;		_printf
;; This function uses a non-reentrant model
;;
psect	text560
	file	"C:\Program Files (x86)\HI-TECH Software\PICC\9.83\sources\wmul.c"
	line	3
	global	__size_of___wmul
	__size_of___wmul	equ	__end_of___wmul-___wmul
	
___wmul:	
	opt	stack 3
; Regs used in ___wmul: [wreg+status,2+status,0]
	line	4
	
l6444:	
	clrf	(___wmul@product)
	clrf	(___wmul@product+1)
	line	7
	
l6446:	
	btfss	(___wmul@multiplier),(0)&7
	goto	u2701
	goto	u2700
u2701:
	goto	l6450
u2700:
	line	8
	
l6448:	
	movf	(___wmul@multiplicand),w
	addwf	(___wmul@product),f
	skipnc
	incf	(___wmul@product+1),f
	movf	(___wmul@multiplicand+1),w
	addwf	(___wmul@product+1),f
	line	9
	
l6450:	
	clrc
	rlf	(___wmul@multiplicand),f
	rlf	(___wmul@multiplicand+1),f
	line	10
	
l6452:	
	clrc
	rrf	(___wmul@multiplier+1),f
	rrf	(___wmul@multiplier),f
	line	11
	
l6454:	
	movf	((___wmul@multiplier+1)),w
	iorwf	((___wmul@multiplier)),w
	skipz
	goto	u2711
	goto	u2710
u2711:
	goto	l6446
u2710:
	line	12
	
l6456:	
	movf	(___wmul@product+1),w
	movwf	(?___wmul+1)
	movf	(___wmul@product),w
	movwf	(?___wmul)
	line	13
	
l3269:	
	return
	opt stack 0
GLOBAL	__end_of___wmul
	__end_of___wmul:
;; =============== function ___wmul ends ============

	signat	___wmul,8314
	global	___bmul
psect	text561,local,class=CODE,delta=2
global __ptext561
__ptext561:

;; *************** function ___bmul *****************
;; Defined at:
;;		line 3 in file "C:\Program Files (x86)\HI-TECH Software\PICC\9.83\sources\bmul.c"
;; Parameters:    Size  Location     Type
;;  multiplier      1    wreg     unsigned char 
;;  multiplicand    1   17[BANK0 ] unsigned char 
;; Auto vars:     Size  Location     Type
;;  multiplier      1   19[BANK0 ] unsigned char 
;;  product         1   18[BANK0 ] unsigned char 
;; Return value:  Size  Location     Type
;;                  1    wreg      unsigned char 
;; Registers used:
;;		wreg, status,2, status,0
;; Tracked objects:
;;		On entry : 60/0
;;		On exit  : 60/0
;;		Unchanged: FFF9F/0
;; Data sizes:     COMMON   BANK0   BANK1   BANK3   BANK2
;;      Params:         0       1       0       0       0
;;      Locals:         0       2       0       0       0
;;      Temps:          0       0       0       0       0
;;      Totals:         0       3       0       0       0
;;Total ram usage:        3 bytes
;; Hardware stack levels used:    1
;; Hardware stack levels required when called:    3
;; This function calls:
;;		Nothing
;; This function is called by:
;;		_fround
;;		_scale
;; This function uses a non-reentrant model
;;
psect	text561
	file	"C:\Program Files (x86)\HI-TECH Software\PICC\9.83\sources\bmul.c"
	line	3
	global	__size_of___bmul
	__size_of___bmul	equ	__end_of___bmul-___bmul
	
___bmul:	
	opt	stack 2
; Regs used in ___bmul: [wreg+status,2+status,0]
;___bmul@multiplier stored from wreg
	movwf	(___bmul@multiplier)
	line	4
	
l6428:	
	clrf	(___bmul@product)
	line	7
	
l6430:	
	btfss	(___bmul@multiplier),(0)&7
	goto	u2681
	goto	u2680
u2681:
	goto	l6434
u2680:
	line	8
	
l6432:	
	movf	(___bmul@multiplicand),w
	addwf	(___bmul@product),f
	line	9
	
l6434:	
	clrc
	rlf	(___bmul@multiplicand),f
	line	10
	
l6436:	
	clrc
	rrf	(___bmul@multiplier),f
	line	11
	
l6438:	
	movf	(___bmul@multiplier),f
	skipz
	goto	u2691
	goto	u2690
u2691:
	goto	l6430
u2690:
	line	12
	
l6440:	
	movf	(___bmul@product),w
	line	13
	
l3263:	
	return
	opt stack 0
GLOBAL	__end_of___bmul
	__end_of___bmul:
;; =============== function ___bmul ends ============

	signat	___bmul,8313
	global	__div_to_l_
psect	text562,local,class=CODE,delta=2
global __ptext562
__ptext562:

;; *************** function __div_to_l_ *****************
;; Defined at:
;;		line 61 in file "C:\Program Files (x86)\HI-TECH Software\PICC\9.83\sources\fldivl.c"
;; Parameters:    Size  Location     Type
;;  f1              3    8[BANK0 ] unsigned char 
;;  f2              3   11[BANK0 ] unsigned char 
;; Auto vars:     Size  Location     Type
;;  quot            4   22[BANK0 ] unsigned long 
;;  exp1            1   27[BANK0 ] unsigned char 
;;  cntr            1   26[BANK0 ] unsigned char 
;; Return value:  Size  Location     Type
;;                  4    8[BANK0 ] unsigned long 
;; Registers used:
;;		wreg, fsr0l, fsr0h, status,2, status,0
;; Tracked objects:
;;		On entry : 0/0
;;		On exit  : 60/0
;;		Unchanged: FFE9F/0
;; Data sizes:     COMMON   BANK0   BANK1   BANK3   BANK2
;;      Params:         0       6       0       0       0
;;      Locals:         0       6       0       0       0
;;      Temps:          0       8       0       0       0
;;      Totals:         0      20       0       0       0
;;Total ram usage:       20 bytes
;; Hardware stack levels used:    1
;; Hardware stack levels required when called:    3
;; This function calls:
;;		Nothing
;; This function is called by:
;;		_printf
;; This function uses a non-reentrant model
;;
psect	text562
	file	"C:\Program Files (x86)\HI-TECH Software\PICC\9.83\sources\fldivl.c"
	line	61
	global	__size_of__div_to_l_
	__size_of__div_to_l_	equ	__end_of__div_to_l_-__div_to_l_
	
__div_to_l_:	
	opt	stack 3
; Regs used in __div_to_l_: [wreg-fsr0h+status,2+status,0]
	line	66
	
l6382:	
	movlw	low(__div_to_l_@f1)
	movwf	fsr0
	bcf	status, 7	;select IRP bank0
	movf	indf,w
	bcf	status, 5	;RP0=0, select bank0
	bcf	status, 6	;RP1=0, select bank0
	movwf	(??__div_to_l_+0)+0+0
	incf	fsr0,f
	movf	indf,w
	movwf	(??__div_to_l_+0)+0+1
	incf	fsr0,f
	movf	indf,w
	movwf	(??__div_to_l_+0)+0+2
	incf	fsr0,f
	movf	indf,w
	movwf	(??__div_to_l_+0)+0+3
	clrc
	rlf	(??__div_to_l_+0)+2,w
	rlf	(??__div_to_l_+0)+3,w
	movwf	(__div_to_l_@exp1)
	movf	((__div_to_l_@exp1)),f
	skipz
	goto	u2591
	goto	u2590
u2591:
	goto	l6386
u2590:
	line	67
	
l6384:	
	clrf	(?__div_to_l_)
	clrf	(?__div_to_l_+1)
	clrf	(?__div_to_l_+2)
	clrf	(?__div_to_l_+3)
	goto	l3553
	line	68
	
l6386:	
	movlw	low(__div_to_l_@f2)
	movwf	fsr0
	movf	indf,w
	movwf	(??__div_to_l_+0)+0+0
	incf	fsr0,f
	movf	indf,w
	movwf	(??__div_to_l_+0)+0+1
	incf	fsr0,f
	movf	indf,w
	movwf	(??__div_to_l_+0)+0+2
	incf	fsr0,f
	movf	indf,w
	movwf	(??__div_to_l_+0)+0+3
	clrc
	rlf	(??__div_to_l_+0)+2,w
	rlf	(??__div_to_l_+0)+3,w
	movwf	(__div_to_l_@cntr)
	movf	((__div_to_l_@cntr)),f
	skipz
	goto	u2601
	goto	u2600
u2601:
	goto	l6390
u2600:
	goto	l6384
	line	70
	
l6390:	
	movlw	low(__div_to_l_@f1)
	movwf	fsr0
	movlw	0
	iorwf	indf,f
	incf	fsr0,f
	movlw	0
	iorwf	indf,f
	incf	fsr0,f
	movlw	080h
	iorwf	indf,f
	incf	fsr0,f
	movlw	0
	iorwf	indf,f
	line	71
	movlw	low(__div_to_l_@f1)
	movwf	fsr0
	movlw	0FFh
	andwf	indf,f
	incf	fsr0,f
	movlw	0FFh
	andwf	indf,f
	incf	fsr0,f
	movlw	0FFh
	andwf	indf,f
	incf	fsr0,f
	movlw	0
	andwf	indf,f
	line	72
	movlw	low(__div_to_l_@f2)
	movwf	fsr0
	movlw	0
	iorwf	indf,f
	incf	fsr0,f
	movlw	0
	iorwf	indf,f
	incf	fsr0,f
	movlw	080h
	iorwf	indf,f
	incf	fsr0,f
	movlw	0
	iorwf	indf,f
	line	73
	movlw	low(__div_to_l_@f2)
	movwf	fsr0
	movlw	0FFh
	andwf	indf,f
	incf	fsr0,f
	movlw	0FFh
	andwf	indf,f
	incf	fsr0,f
	movlw	0FFh
	andwf	indf,f
	incf	fsr0,f
	movlw	0
	andwf	indf,f
	line	74
	
l6392:	
	clrf	(__div_to_l_@quot)
	clrf	(__div_to_l_@quot+1)
	clrf	(__div_to_l_@quot+2)
	clrf	(__div_to_l_@quot+3)
	line	75
	
l6394:	
	movlw	low(07Fh)
	subwf	(__div_to_l_@exp1),f
	line	76
	
l6396:	
	movlw	(0A0h)
	addwf	(__div_to_l_@cntr),w
	movwf	(??__div_to_l_+0)+0
	movf	0+(??__div_to_l_+0)+0,w
	subwf	(__div_to_l_@exp1),f
	line	77
	
l6398:	
	movlw	(020h)
	movwf	(__div_to_l_@cntr)
	line	79
	
l6400:	
	clrc
	rlf	(__div_to_l_@quot),f
	rlf	(__div_to_l_@quot+1),f
	rlf	(__div_to_l_@quot+2),f
	rlf	(__div_to_l_@quot+3),f
	line	80
	
l6402:	
	movlw	low(__div_to_l_@f2)
	movwf	fsr0
	movf	indf,w
	movwf	(??__div_to_l_+0)+0+0
	incf	fsr0,f
	movf	indf,w
	movwf	(??__div_to_l_+0)+0+1
	incf	fsr0,f
	movf	indf,w
	movwf	(??__div_to_l_+0)+0+2
	incf	fsr0,f
	movf	indf,w
	movwf	(??__div_to_l_+0)+0+3
	movlw	low(__div_to_l_@f1)
	movwf	fsr0
	movf	indf,w
	movwf	(??__div_to_l_+4)+0+0
	incf	fsr0,f
	movf	indf,w
	movwf	(??__div_to_l_+4)+0+1
	incf	fsr0,f
	movf	indf,w
	movwf	(??__div_to_l_+4)+0+2
	incf	fsr0,f
	movf	indf,w
	movwf	(??__div_to_l_+4)+0+3
	movf	3+(??__div_to_l_+0)+0,w
	subwf	3+(??__div_to_l_+4)+0,w
	skipz
	goto	u2615
	movf	2+(??__div_to_l_+0)+0,w
	subwf	2+(??__div_to_l_+4)+0,w
	skipz
	goto	u2615
	movf	1+(??__div_to_l_+0)+0,w
	subwf	1+(??__div_to_l_+4)+0,w
	skipz
	goto	u2615
	movf	0+(??__div_to_l_+0)+0,w
	subwf	0+(??__div_to_l_+4)+0,w
u2615:
	skipc
	goto	u2611
	goto	u2610
u2611:
	goto	l3556
u2610:
	line	81
	
l6404:	
	movlw	low(__div_to_l_@f2)
	movwf	fsr0
	movf	indf,w
	movwf	(??__div_to_l_+0)+0+0
	incf	fsr0,f
	movf	indf,w
	movwf	(??__div_to_l_+0)+0+1
	incf	fsr0,f
	movf	indf,w
	movwf	(??__div_to_l_+0)+0+2
	incf	fsr0,f
	movf	indf,w
	movwf	(??__div_to_l_+0)+0+3
	movlw	low(__div_to_l_@f1)
	movwf	fsr0
	movf	0+(??__div_to_l_+0)+0,w
	subwf	indf,f
	incf	fsr0
	movf	1+(??__div_to_l_+0)+0,w
	skipc
	incfsz	1+(??__div_to_l_+0)+0,w
	subwf	indf,f
	incf	fsr0
	movf	2+(??__div_to_l_+0)+0,w
	skipc
	incfsz	2+(??__div_to_l_+0)+0,w
	subwf	indf,f
	incf	fsr0
	movf	3+(??__div_to_l_+0)+0,w
	skipc
	incf	3+(??__div_to_l_+0)+0,w
	subwf	indf,f
	movlw	3
	subwf	fsr0
	line	82
	
l6406:	
	bsf	(__div_to_l_@quot)+(0/8),(0)&7
	line	83
	
l3556:	
	line	84
	movlw	low(__div_to_l_@f1)
	movwf	fsr0
	clrc
	rlf	indf,f
	incf	fsr0,f
	rlf	indf,f
	incf	fsr0,f
	rlf	indf,f
	incf	fsr0,f
	rlf	indf,f
	line	85
	
l6408:	
	decfsz	(__div_to_l_@cntr),f
	goto	u2621
	goto	u2620
u2621:
	goto	l6400
u2620:
	
l3557:	
	line	86
	btfss	(__div_to_l_@exp1),7
	goto	u2631
	goto	u2630
u2631:
	goto	l6418
u2630:
	line	87
	
l6410:	
	movf	(__div_to_l_@exp1),w
	xorlw	80h
	addlw	-((-31)^80h)
	skipnc
	goto	u2641
	goto	u2640
u2641:
	goto	l6414
u2640:
	goto	l6384
	line	90
	
l6414:	
	clrc
	rrf	(__div_to_l_@quot+3),f
	rrf	(__div_to_l_@quot+2),f
	rrf	(__div_to_l_@quot+1),f
	rrf	(__div_to_l_@quot),f
	line	91
	
l6416:	
	incfsz	(__div_to_l_@exp1),f
	goto	u2651
	goto	u2650
u2651:
	goto	l6414
u2650:
	goto	l6424
	line	93
	
l6418:	
	movlw	(020h)
	subwf	(__div_to_l_@exp1),w
	skipc
	goto	u2661
	goto	u2660
u2661:
	goto	l3564
u2660:
	goto	l6384
	line	96
	
l6422:	
	clrc
	rlf	(__div_to_l_@quot),f
	rlf	(__div_to_l_@quot+1),f
	rlf	(__div_to_l_@quot+2),f
	rlf	(__div_to_l_@quot+3),f
	line	97
	decf	(__div_to_l_@exp1),f
	line	98
	
l3564:	
	line	95
	movf	(__div_to_l_@exp1),f
	skipz
	goto	u2671
	goto	u2670
u2671:
	goto	l6422
u2670:
	line	100
	
l6424:	
	movf	(__div_to_l_@quot+3),w
	movwf	(?__div_to_l_+3)
	movf	(__div_to_l_@quot+2),w
	movwf	(?__div_to_l_+2)
	movf	(__div_to_l_@quot+1),w
	movwf	(?__div_to_l_+1)
	movf	(__div_to_l_@quot),w
	movwf	(?__div_to_l_)

	line	101
	
l3553:	
	return
	opt stack 0
GLOBAL	__end_of__div_to_l_
	__end_of__div_to_l_:
;; =============== function __div_to_l_ ends ============

	signat	__div_to_l_,8316
	global	__tdiv_to_l_
psect	text563,local,class=CODE,delta=2
global __ptext563
__ptext563:

;; *************** function __tdiv_to_l_ *****************
;; Defined at:
;;		line 61 in file "C:\Program Files (x86)\HI-TECH Software\PICC\9.83\sources\ftdivl.c"
;; Parameters:    Size  Location     Type
;;  f1              3    8[BANK0 ] float 
;;  f2              3   11[BANK0 ] float 
;; Auto vars:     Size  Location     Type
;;  quot            4   17[BANK0 ] unsigned long 
;;  exp1            1   22[BANK0 ] unsigned char 
;;  cntr            1   21[BANK0 ] unsigned char 
;; Return value:  Size  Location     Type
;;                  4    8[BANK0 ] unsigned long 
;; Registers used:
;;		wreg, status,2, status,0
;; Tracked objects:
;;		On entry : 60/0
;;		On exit  : 60/0
;;		Unchanged: FFF9F/0
;; Data sizes:     COMMON   BANK0   BANK1   BANK3   BANK2
;;      Params:         0       6       0       0       0
;;      Locals:         0       6       0       0       0
;;      Temps:          0       3       0       0       0
;;      Totals:         0      15       0       0       0
;;Total ram usage:       15 bytes
;; Hardware stack levels used:    1
;; Hardware stack levels required when called:    3
;; This function calls:
;;		Nothing
;; This function is called by:
;;		_printf
;; This function uses a non-reentrant model
;;
psect	text563
	file	"C:\Program Files (x86)\HI-TECH Software\PICC\9.83\sources\ftdivl.c"
	line	61
	global	__size_of__tdiv_to_l_
	__size_of__tdiv_to_l_	equ	__end_of__tdiv_to_l_-__tdiv_to_l_
	
__tdiv_to_l_:	
	opt	stack 3
; Regs used in __tdiv_to_l_: [wreg+status,2+status,0]
	line	66
	
l6334:	
	movf	(__tdiv_to_l_@f1),w
	movwf	((??__tdiv_to_l_+0)+0)
	movf	(__tdiv_to_l_@f1+1),w
	movwf	((??__tdiv_to_l_+0)+0+1)
	movf	(__tdiv_to_l_@f1+2),w
	movwf	((??__tdiv_to_l_+0)+0+2)
	clrc
	rlf	(??__tdiv_to_l_+0)+1,w
	rlf	(??__tdiv_to_l_+0)+2,w
	movwf	(__tdiv_to_l_@exp1)
	movf	((__tdiv_to_l_@exp1)),f
	skipz
	goto	u2501
	goto	u2500
u2501:
	goto	l6338
u2500:
	line	67
	
l6336:	
	clrf	(?__tdiv_to_l_)
	clrf	(?__tdiv_to_l_+1)
	clrf	(?__tdiv_to_l_+2)
	clrf	(?__tdiv_to_l_+3)
	goto	l3510
	line	68
	
l6338:	
	movf	(__tdiv_to_l_@f2),w
	movwf	((??__tdiv_to_l_+0)+0)
	movf	(__tdiv_to_l_@f2+1),w
	movwf	((??__tdiv_to_l_+0)+0+1)
	movf	(__tdiv_to_l_@f2+2),w
	movwf	((??__tdiv_to_l_+0)+0+2)
	clrc
	rlf	(??__tdiv_to_l_+0)+1,w
	rlf	(??__tdiv_to_l_+0)+2,w
	movwf	(__tdiv_to_l_@cntr)
	movf	((__tdiv_to_l_@cntr)),f
	skipz
	goto	u2511
	goto	u2510
u2511:
	goto	l3511
u2510:
	goto	l6336
	line	69
	
l3511:	
	line	70
	bsf	(__tdiv_to_l_@f1)+(15/8),(15)&7
	line	71
	
l6342:	
	movlw	0FFh
	andwf	(__tdiv_to_l_@f1),f
	movlw	0FFh
	andwf	(__tdiv_to_l_@f1+1),f
	movlw	0
	andwf	(__tdiv_to_l_@f1+2),f
	line	72
	
l6344:	
	bsf	(__tdiv_to_l_@f2)+(15/8),(15)&7
	line	73
	movlw	0FFh
	andwf	(__tdiv_to_l_@f2),f
	movlw	0FFh
	andwf	(__tdiv_to_l_@f2+1),f
	movlw	0
	andwf	(__tdiv_to_l_@f2+2),f
	line	74
	
l6346:	
	clrf	(__tdiv_to_l_@quot)
	clrf	(__tdiv_to_l_@quot+1)
	clrf	(__tdiv_to_l_@quot+2)
	clrf	(__tdiv_to_l_@quot+3)
	line	75
	
l6348:	
	movlw	low(07Fh)
	subwf	(__tdiv_to_l_@exp1),f
	line	76
	
l6350:	
	movlw	(098h)
	addwf	(__tdiv_to_l_@cntr),w
	movwf	(??__tdiv_to_l_+0)+0
	movf	0+(??__tdiv_to_l_+0)+0,w
	subwf	(__tdiv_to_l_@exp1),f
	line	77
	movlw	(018h)
	movwf	(__tdiv_to_l_@cntr)
	line	79
	
l6352:	
	clrc
	rlf	(__tdiv_to_l_@quot),f
	rlf	(__tdiv_to_l_@quot+1),f
	rlf	(__tdiv_to_l_@quot+2),f
	rlf	(__tdiv_to_l_@quot+3),f
	line	80
	
l6354:	
	movf	(__tdiv_to_l_@f2+2),w
	subwf	(__tdiv_to_l_@f1+2),w
	skipz
	goto	u2525
	movf	(__tdiv_to_l_@f2+1),w
	subwf	(__tdiv_to_l_@f1+1),w
	skipz
	goto	u2525
	movf	(__tdiv_to_l_@f2),w
	subwf	(__tdiv_to_l_@f1),w
u2525:
	skipc
	goto	u2521
	goto	u2520
u2521:
	goto	l6360
u2520:
	line	81
	
l6356:	
	movf	(__tdiv_to_l_@f2),w
	subwf	(__tdiv_to_l_@f1),f
	movf	(__tdiv_to_l_@f2+1),w
	skipc
	incfsz	(__tdiv_to_l_@f2+1),w
	subwf	(__tdiv_to_l_@f1+1),f
	movf	(__tdiv_to_l_@f2+2),w
	skipc
	incf	(__tdiv_to_l_@f2+2),w
	subwf	(__tdiv_to_l_@f1+2),f
	line	82
	
l6358:	
	bsf	(__tdiv_to_l_@quot)+(0/8),(0)&7
	line	84
	
l6360:	
	clrc
	rlf	(__tdiv_to_l_@f1),f
	rlf	(__tdiv_to_l_@f1+1),f
	rlf	(__tdiv_to_l_@f1+2),f
	line	85
	
l6362:	
	decfsz	(__tdiv_to_l_@cntr),f
	goto	u2531
	goto	u2530
u2531:
	goto	l6352
u2530:
	
l3514:	
	line	86
	btfss	(__tdiv_to_l_@exp1),7
	goto	u2541
	goto	u2540
u2541:
	goto	l6372
u2540:
	line	87
	
l6364:	
	movf	(__tdiv_to_l_@exp1),w
	xorlw	80h
	addlw	-((-23)^80h)
	skipnc
	goto	u2551
	goto	u2550
u2551:
	goto	l6368
u2550:
	goto	l6336
	line	90
	
l6368:	
	clrc
	rrf	(__tdiv_to_l_@quot+3),f
	rrf	(__tdiv_to_l_@quot+2),f
	rrf	(__tdiv_to_l_@quot+1),f
	rrf	(__tdiv_to_l_@quot),f
	line	91
	
l6370:	
	incfsz	(__tdiv_to_l_@exp1),f
	goto	u2561
	goto	u2560
u2561:
	goto	l6368
u2560:
	goto	l6378
	line	93
	
l6372:	
	movlw	(018h)
	subwf	(__tdiv_to_l_@exp1),w
	skipc
	goto	u2571
	goto	u2570
u2571:
	goto	l3521
u2570:
	goto	l6336
	line	96
	
l6376:	
	clrc
	rlf	(__tdiv_to_l_@quot),f
	rlf	(__tdiv_to_l_@quot+1),f
	rlf	(__tdiv_to_l_@quot+2),f
	rlf	(__tdiv_to_l_@quot+3),f
	line	97
	decf	(__tdiv_to_l_@exp1),f
	line	98
	
l3521:	
	line	95
	movf	(__tdiv_to_l_@exp1),f
	skipz
	goto	u2581
	goto	u2580
u2581:
	goto	l6376
u2580:
	line	100
	
l6378:	
	movf	(__tdiv_to_l_@quot+3),w
	movwf	(?__tdiv_to_l_+3)
	movf	(__tdiv_to_l_@quot+2),w
	movwf	(?__tdiv_to_l_+2)
	movf	(__tdiv_to_l_@quot+1),w
	movwf	(?__tdiv_to_l_+1)
	movf	(__tdiv_to_l_@quot),w
	movwf	(?__tdiv_to_l_)

	line	101
	
l3510:	
	return
	opt stack 0
GLOBAL	__end_of__tdiv_to_l_
	__end_of__tdiv_to_l_:
;; =============== function __tdiv_to_l_ ends ============

	signat	__tdiv_to_l_,8316
	global	_isdigit
psect	text564,local,class=CODE,delta=2
global __ptext564
__ptext564:

;; *************** function _isdigit *****************
;; Defined at:
;;		line 13 in file "C:\Program Files (x86)\HI-TECH Software\PICC\9.83\sources\isdigit.c"
;; Parameters:    Size  Location     Type
;;  c               1    wreg     unsigned char 
;; Auto vars:     Size  Location     Type
;;  c               1    9[BANK0 ] unsigned char 
;; Return value:  Size  Location     Type
;;		None               void
;; Registers used:
;;		wreg, status,2, status,0
;; Tracked objects:
;;		On entry : 60/20
;;		On exit  : 60/0
;;		Unchanged: FFF9F/0
;; Data sizes:     COMMON   BANK0   BANK1   BANK3   BANK2
;;      Params:         0       0       0       0       0
;;      Locals:         0       2       0       0       0
;;      Temps:          0       0       0       0       0
;;      Totals:         0       2       0       0       0
;;Total ram usage:        2 bytes
;; Hardware stack levels used:    1
;; Hardware stack levels required when called:    3
;; This function calls:
;;		Nothing
;; This function is called by:
;;		_printf
;; This function uses a non-reentrant model
;;
psect	text564
	file	"C:\Program Files (x86)\HI-TECH Software\PICC\9.83\sources\isdigit.c"
	line	13
	global	__size_of_isdigit
	__size_of_isdigit	equ	__end_of_isdigit-_isdigit
	
_isdigit:	
	opt	stack 3
; Regs used in _isdigit: [wreg+status,2+status,0]
;isdigit@c stored from wreg
	bcf	status, 5	;RP0=0, select bank0
	movwf	(isdigit@c)
	line	14
	
l6322:	
	clrf	(_isdigit$3669)
	
l6324:	
	movlw	(03Ah)
	subwf	(isdigit@c),w
	skipnc
	goto	u2481
	goto	u2480
u2481:
	goto	l6330
u2480:
	
l6326:	
	movlw	(030h)
	subwf	(isdigit@c),w
	skipc
	goto	u2491
	goto	u2490
u2491:
	goto	l6330
u2490:
	
l6328:	
	clrf	(_isdigit$3669)
	incf	(_isdigit$3669),f
	
l6330:	
	rrf	(_isdigit$3669),w
	
	line	15
	
l3248:	
	return
	opt stack 0
GLOBAL	__end_of_isdigit
	__end_of_isdigit:
;; =============== function _isdigit ends ============

	signat	_isdigit,4216
	global	_isprint
psect	text565,local,class=CODE,delta=2
global __ptext565
__ptext565:

;; *************** function _isprint *****************
;; Defined at:
;;		line 13 in file "C:\Program Files (x86)\HI-TECH Software\PICC\9.83\sources\isprint.c"
;; Parameters:    Size  Location     Type
;;  c               1    wreg     unsigned char 
;; Auto vars:     Size  Location     Type
;;  c               1    9[BANK0 ] unsigned char 
;; Return value:  Size  Location     Type
;;		None               void
;; Registers used:
;;		wreg, status,2, status,0
;; Tracked objects:
;;		On entry : 60/0
;;		On exit  : 60/0
;;		Unchanged: FFF9F/0
;; Data sizes:     COMMON   BANK0   BANK1   BANK3   BANK2
;;      Params:         0       0       0       0       0
;;      Locals:         0       2       0       0       0
;;      Temps:          0       0       0       0       0
;;      Totals:         0       2       0       0       0
;;Total ram usage:        2 bytes
;; Hardware stack levels used:    1
;; Hardware stack levels required when called:    3
;; This function calls:
;;		Nothing
;; This function is called by:
;;		_lcd_putc
;; This function uses a non-reentrant model
;;
psect	text565
	file	"C:\Program Files (x86)\HI-TECH Software\PICC\9.83\sources\isprint.c"
	line	13
	global	__size_of_isprint
	__size_of_isprint	equ	__end_of_isprint-_isprint
	
_isprint:	
	opt	stack 1
; Regs used in _isprint: [wreg+status,2+status,0]
;isprint@c stored from wreg
	movwf	(isprint@c)
	line	14
	
l6310:	
	clrf	(_isprint$3672)
	
l6312:	
	movlw	(07Fh)
	subwf	(isprint@c),w
	skipnc
	goto	u2461
	goto	u2460
u2461:
	goto	l6318
u2460:
	
l6314:	
	movlw	(020h)
	subwf	(isprint@c),w
	skipc
	goto	u2471
	goto	u2470
u2471:
	goto	l6318
u2470:
	
l6316:	
	clrf	(_isprint$3672)
	incf	(_isprint$3672),f
	
l6318:	
	rrf	(_isprint$3672),w
	
	line	15
	
l3253:	
	return
	opt stack 0
GLOBAL	__end_of_isprint
	__end_of_isprint:
;; =============== function _isprint ends ============

	signat	_isprint,4216
	global	_ngat
psect	text566,local,class=CODE,delta=2
global __ptext566
__ptext566:

;; *************** function _ngat *****************
;; Defined at:
;;		line 57 in file "C:\Online Class\HK6\Practice_Micro\tmr0 counter\tmr0 ct.c"
;; Parameters:    Size  Location     Type
;;		None
;; Auto vars:     Size  Location     Type
;;		None
;; Return value:  Size  Location     Type
;;		None               void
;; Registers used:
;;		wreg, status,2, status,0, pclath, cstack
;; Tracked objects:
;;		On entry : 0/0
;;		On exit  : 60/0
;;		Unchanged: FFF9F/0
;; Data sizes:     COMMON   BANK0   BANK1   BANK3   BANK2
;;      Params:         0       0       0       0       0
;;      Locals:         0       0       0       0       0
;;      Temps:          0       2       0       0       0
;;      Totals:         0       2       0       0       0
;;Total ram usage:        2 bytes
;; Hardware stack levels used:    1
;; Hardware stack levels required when called:    2
;; This function calls:
;;		i1___ftadd
;; This function is called by:
;;		Interrupt level 1
;; This function uses a non-reentrant model
;;
psect	text566
	file	"C:\Online Class\HK6\Practice_Micro\tmr0 counter\tmr0 ct.c"
	line	57
	global	__size_of_ngat
	__size_of_ngat	equ	__end_of_ngat-_ngat
	
_ngat:	
	opt	stack 0
; Regs used in _ngat: [wreg+status,2+status,0+pclath+cstack]
psect	intentry,class=CODE,delta=2
global __pintentry
__pintentry:
global interrupt_function
interrupt_function:
	global saved_w
	saved_w	set	btemp+0
	movwf	saved_w
	swapf	status,w
	bcf	status, 5	;RP0=0, select bank0
	bcf	status, 6	;RP1=0, select bank0
	movwf	(??_ngat+0)
	movf	pclath,w
	movwf	(??_ngat+1)
	ljmp	_ngat
psect	text566
	line	58
	
i1l6302:	
;tmr0 ct.c: 58: if(T0IE&&T0IF)
	btfss	(93/8),(93)&7
	goto	u244_21
	goto	u244_20
u244_21:
	goto	i1l1055
u244_20:
	
i1l6304:	
	btfss	(90/8),(90)&7
	goto	u245_21
	goto	u245_20
u245_21:
	goto	i1l1055
u245_20:
	line	60
	
i1l6306:	
;tmr0 ct.c: 59: {
;tmr0 ct.c: 60: dem++;
	movlw	0x0
	movwf	(?i1___ftadd)
	movlw	0x80
	movwf	(?i1___ftadd+1)
	movlw	0x3f
	movwf	(?i1___ftadd+2)
	bsf	status, 5	;RP0=1, select bank1
	movf	(_dem)^080h,w
	movwf	0+(?i1___ftadd)+03h
	movf	(_dem+1)^080h,w
	movwf	1+(?i1___ftadd)+03h
	movf	(_dem+2)^080h,w
	movwf	2+(?i1___ftadd)+03h
	fcall	i1___ftadd
	movf	(0+(?i1___ftadd)),w
	bsf	status, 5	;RP0=1, select bank1
	movwf	(_dem)^080h
	movf	(1+(?i1___ftadd)),w
	movwf	(_dem+1)^080h
	movf	(2+(?i1___ftadd)),w
	movwf	(_dem+2)^080h
	line	61
	
i1l6308:	
;tmr0 ct.c: 61: T0IF=0;
	bcf	(90/8),(90)&7
	line	65
	
i1l1055:	
	bcf	status, 5	;RP0=0, select bank0
	movf	(??_ngat+1),w
	movwf	pclath
	swapf	(??_ngat+0)^00h,w
	movwf	status
	swapf	saved_w,f
	swapf	saved_w,w
	retfie
	opt stack 0
GLOBAL	__end_of_ngat
	__end_of_ngat:
;; =============== function _ngat ends ============

	signat	_ngat,88
	global	i1___ftadd
psect	text567,local,class=CODE,delta=2
global __ptext567
__ptext567:

;; *************** function i1___ftadd *****************
;; Defined at:
;;		line 87 in file "C:\Program Files (x86)\HI-TECH Software\PICC\9.83\sources\ftadd.c"
;; Parameters:    Size  Location     Type
;;  __ftadd         3    8[COMMON] float 
;;  __ftadd         3   11[COMMON] float 
;; Auto vars:     Size  Location     Type
;;  __ftadd         1    5[BANK0 ] unsigned char 
;;  __ftadd         1    4[BANK0 ] unsigned char 
;;  __ftadd         1    3[BANK0 ] unsigned char 
;; Return value:  Size  Location     Type
;;                  3    8[COMMON] float 
;; Registers used:
;;		wreg, status,2, status,0, pclath, cstack
;; Tracked objects:
;;		On entry : 60/20
;;		On exit  : 60/0
;;		Unchanged: FFF9F/0
;; Data sizes:     COMMON   BANK0   BANK1   BANK3   BANK2
;;      Params:         6       0       0       0       0
;;      Locals:         0       3       0       0       0
;;      Temps:          0       3       0       0       0
;;      Totals:         6       6       0       0       0
;;Total ram usage:       12 bytes
;; Hardware stack levels used:    1
;; Hardware stack levels required when called:    1
;; This function calls:
;;		i1___ftpack
;; This function is called by:
;;		_ngat
;; This function uses a non-reentrant model
;;
psect	text567
	file	"C:\Program Files (x86)\HI-TECH Software\PICC\9.83\sources\ftadd.c"
	line	87
	global	__size_ofi1___ftadd
	__size_ofi1___ftadd	equ	__end_ofi1___ftadd-i1___ftadd
	
i1___ftadd:	
	opt	stack 0
; Regs used in i1___ftadd: [wreg+status,2+status,0+pclath+cstack]
	line	90
	
i1l6722:	
	movf	(i1___ftadd@f1),w
	bcf	status, 5	;RP0=0, select bank0
	movwf	((??i1___ftadd+0)+0)
	movf	(i1___ftadd@f1+1),w
	movwf	((??i1___ftadd+0)+0+1)
	movf	(i1___ftadd@f1+2),w
	movwf	((??i1___ftadd+0)+0+2)
	clrc
	rlf	(??i1___ftadd+0)+1,w
	rlf	(??i1___ftadd+0)+2,w
	movwf	(i1___ftadd@exp1)
	line	91
	movf	(i1___ftadd@f2),w
	movwf	((??i1___ftadd+0)+0)
	movf	(i1___ftadd@f2+1),w
	movwf	((??i1___ftadd+0)+0+1)
	movf	(i1___ftadd@f2+2),w
	movwf	((??i1___ftadd+0)+0+2)
	clrc
	rlf	(??i1___ftadd+0)+1,w
	rlf	(??i1___ftadd+0)+2,w
	movwf	(i1___ftadd@exp2)
	line	92
	
i1l6724:	
	movf	(i1___ftadd@exp1),w
	skipz
	goto	u320_20
	goto	i1l6730
u320_20:
	
i1l6726:	
	movf	(i1___ftadd@exp2),w
	subwf	(i1___ftadd@exp1),w
	skipnc
	goto	u321_21
	goto	u321_20
u321_21:
	goto	i1l6734
u321_20:
	
i1l6728:	
	movf	(i1___ftadd@exp2),w
	movwf	(??i1___ftadd+0)+0
	movf	(i1___ftadd@exp1),w
	subwf	(??i1___ftadd+0)+0,f
	movlw	(019h)
	subwf	0+(??i1___ftadd+0)+0,w
	skipc
	goto	u322_21
	goto	u322_20
u322_21:
	goto	i1l6734
u322_20:
	line	93
	
i1l6730:	
	movf	(i1___ftadd@f2),w
	movwf	(?i1___ftadd)
	movf	(i1___ftadd@f2+1),w
	movwf	(?i1___ftadd+1)
	movf	(i1___ftadd@f2+2),w
	movwf	(?i1___ftadd+2)
	goto	i1l3313
	line	94
	
i1l6734:	
	movf	(i1___ftadd@exp2),w
	skipz
	goto	u323_20
	goto	i1l3316
u323_20:
	
i1l6736:	
	movf	(i1___ftadd@exp1),w
	subwf	(i1___ftadd@exp2),w
	skipnc
	goto	u324_21
	goto	u324_20
u324_21:
	goto	i1l6740
u324_20:
	
i1l6738:	
	movf	(i1___ftadd@exp1),w
	movwf	(??i1___ftadd+0)+0
	movf	(i1___ftadd@exp2),w
	subwf	(??i1___ftadd+0)+0,f
	movlw	(019h)
	subwf	0+(??i1___ftadd+0)+0,w
	skipc
	goto	u325_21
	goto	u325_20
u325_21:
	goto	i1l6740
u325_20:
	
i1l3316:	
	line	95
	goto	i1l3313
	line	96
	
i1l6740:	
	movlw	(06h)
	movwf	(i1___ftadd@sign)
	line	97
	
i1l6742:	
	btfss	(i1___ftadd@f1+2),(23)&7
	goto	u326_21
	goto	u326_20
u326_21:
	goto	i1l3317
u326_20:
	line	98
	
i1l6744:	
	bsf	(i1___ftadd@sign)+(7/8),(7)&7
	
i1l3317:	
	line	99
	btfss	(i1___ftadd@f2+2),(23)&7
	goto	u327_21
	goto	u327_20
u327_21:
	goto	i1l3318
u327_20:
	line	100
	
i1l6746:	
	bsf	(i1___ftadd@sign)+(6/8),(6)&7
	
i1l3318:	
	line	101
	bsf	(i1___ftadd@f1)+(15/8),(15)&7
	line	102
	
i1l6748:	
	movlw	0FFh
	andwf	(i1___ftadd@f1),f
	movlw	0FFh
	andwf	(i1___ftadd@f1+1),f
	movlw	0
	andwf	(i1___ftadd@f1+2),f
	line	103
	
i1l6750:	
	bsf	(i1___ftadd@f2)+(15/8),(15)&7
	line	104
	movlw	0FFh
	andwf	(i1___ftadd@f2),f
	movlw	0FFh
	andwf	(i1___ftadd@f2+1),f
	movlw	0
	andwf	(i1___ftadd@f2+2),f
	line	106
	movf	(i1___ftadd@exp2),w
	subwf	(i1___ftadd@exp1),w
	skipnc
	goto	u328_21
	goto	u328_20
u328_21:
	goto	i1l6762
u328_20:
	line	110
	
i1l6752:	
	clrc
	rlf	(i1___ftadd@f2),f
	rlf	(i1___ftadd@f2+1),f
	rlf	(i1___ftadd@f2+2),f
	line	111
	decf	(i1___ftadd@exp2),f
	line	112
	
i1l6754:	
	movf	(i1___ftadd@exp2),w
	xorwf	(i1___ftadd@exp1),w
	skipnz
	goto	u329_21
	goto	u329_20
u329_21:
	goto	i1l6760
u329_20:
	
i1l6756:	
	decf	(i1___ftadd@sign),f
	movf	((i1___ftadd@sign)),w
	andlw	07h
	btfss	status,2
	goto	u330_21
	goto	u330_20
u330_21:
	goto	i1l6752
u330_20:
	goto	i1l6760
	line	114
	
i1l6758:	
	clrc
	rrf	(i1___ftadd@f1+2),f
	rrf	(i1___ftadd@f1+1),f
	rrf	(i1___ftadd@f1),f
	line	115
	incf	(i1___ftadd@exp1),f
	line	113
	
i1l6760:	
	movf	(i1___ftadd@exp1),w
	xorwf	(i1___ftadd@exp2),w
	skipz
	goto	u331_21
	goto	u331_20
u331_21:
	goto	i1l6758
u331_20:
	goto	i1l3327
	line	117
	
i1l6762:	
	movf	(i1___ftadd@exp1),w
	subwf	(i1___ftadd@exp2),w
	skipnc
	goto	u332_21
	goto	u332_20
u332_21:
	goto	i1l3327
u332_20:
	line	121
	
i1l6764:	
	clrc
	rlf	(i1___ftadd@f1),f
	rlf	(i1___ftadd@f1+1),f
	rlf	(i1___ftadd@f1+2),f
	line	122
	decf	(i1___ftadd@exp1),f
	line	123
	
i1l6766:	
	movf	(i1___ftadd@exp2),w
	xorwf	(i1___ftadd@exp1),w
	skipnz
	goto	u333_21
	goto	u333_20
u333_21:
	goto	i1l6772
u333_20:
	
i1l6768:	
	decf	(i1___ftadd@sign),f
	movf	((i1___ftadd@sign)),w
	andlw	07h
	btfss	status,2
	goto	u334_21
	goto	u334_20
u334_21:
	goto	i1l6764
u334_20:
	goto	i1l6772
	line	125
	
i1l6770:	
	clrc
	rrf	(i1___ftadd@f2+2),f
	rrf	(i1___ftadd@f2+1),f
	rrf	(i1___ftadd@f2),f
	line	126
	incf	(i1___ftadd@exp2),f
	line	124
	
i1l6772:	
	movf	(i1___ftadd@exp1),w
	xorwf	(i1___ftadd@exp2),w
	skipz
	goto	u335_21
	goto	u335_20
u335_21:
	goto	i1l6770
u335_20:
	line	129
	
i1l3327:	
	btfss	(i1___ftadd@sign),(7)&7
	goto	u336_21
	goto	u336_20
u336_21:
	goto	i1l6778
u336_20:
	line	131
	
i1l6774:	
	movlw	0FFh
	xorwf	(i1___ftadd@f1),f
	movlw	0FFh
	xorwf	(i1___ftadd@f1+1),f
	movlw	0FFh
	xorwf	(i1___ftadd@f1+2),f
	line	132
	
i1l6776:	
	incf	(i1___ftadd@f1),f
	skipnz
	incf	(i1___ftadd@f1+1),f
	skipnz
	incf	(i1___ftadd@f1+2),f
	line	134
	
i1l6778:	
	btfss	(i1___ftadd@sign),(6)&7
	goto	u337_21
	goto	u337_20
u337_21:
	goto	i1l6784
u337_20:
	line	136
	
i1l6780:	
	movlw	0FFh
	xorwf	(i1___ftadd@f2),f
	movlw	0FFh
	xorwf	(i1___ftadd@f2+1),f
	movlw	0FFh
	xorwf	(i1___ftadd@f2+2),f
	line	137
	
i1l6782:	
	incf	(i1___ftadd@f2),f
	skipnz
	incf	(i1___ftadd@f2+1),f
	skipnz
	incf	(i1___ftadd@f2+2),f
	line	139
	
i1l6784:	
	clrf	(i1___ftadd@sign)
	line	140
	
i1l6786:	
	movf	(i1___ftadd@f1),w
	addwf	(i1___ftadd@f2),f
	movf	(i1___ftadd@f1+1),w
	clrz
	skipnc
	incf	(i1___ftadd@f1+1),w
	skipnz
	goto	u338_21
	addwf	(i1___ftadd@f2+1),f
u338_21:
	movf	(i1___ftadd@f1+2),w
	clrz
	skipnc
	incf	(i1___ftadd@f1+2),w
	skipnz
	goto	u338_22
	addwf	(i1___ftadd@f2+2),f
u338_22:

	line	141
	
i1l6788:	
	btfss	(i1___ftadd@f2+2),(23)&7
	goto	u339_21
	goto	u339_20
u339_21:
	goto	i1l6796
u339_20:
	line	142
	
i1l6790:	
	movlw	0FFh
	xorwf	(i1___ftadd@f2),f
	movlw	0FFh
	xorwf	(i1___ftadd@f2+1),f
	movlw	0FFh
	xorwf	(i1___ftadd@f2+2),f
	line	143
	
i1l6792:	
	incf	(i1___ftadd@f2),f
	skipnz
	incf	(i1___ftadd@f2+1),f
	skipnz
	incf	(i1___ftadd@f2+2),f
	line	144
	
i1l6794:	
	clrf	(i1___ftadd@sign)
	incf	(i1___ftadd@sign),f
	line	146
	
i1l6796:	
	movf	(i1___ftadd@f2),w
	movwf	(?i1___ftpack)
	movf	(i1___ftadd@f2+1),w
	movwf	(?i1___ftpack+1)
	movf	(i1___ftadd@f2+2),w
	movwf	(?i1___ftpack+2)
	movf	(i1___ftadd@exp1),w
	movwf	0+(?i1___ftpack)+03h
	movf	(i1___ftadd@sign),w
	movwf	0+(?i1___ftpack)+04h
	fcall	i1___ftpack
	movf	(0+(?i1___ftpack)),w
	movwf	(?i1___ftadd)
	movf	(1+(?i1___ftpack)),w
	movwf	(?i1___ftadd+1)
	movf	(2+(?i1___ftpack)),w
	movwf	(?i1___ftadd+2)
	line	148
	
i1l3313:	
	return
	opt stack 0
GLOBAL	__end_ofi1___ftadd
	__end_ofi1___ftadd:
;; =============== function i1___ftadd ends ============

	signat	i1___ftadd,91
	global	i1___ftpack
psect	text568,local,class=CODE,delta=2
global __ptext568
__ptext568:

;; *************** function i1___ftpack *****************
;; Defined at:
;;		line 63 in file "C:\Program Files (x86)\HI-TECH Software\PICC\9.83\sources\float.c"
;; Parameters:    Size  Location     Type
;;  __ftpack        3    0[COMMON] unsigned um
;;  __ftpack        1    3[COMMON] unsigned char 
;;  __ftpack        1    4[COMMON] unsigned char 
;; Auto vars:     Size  Location     Type
;;		None
;; Return value:  Size  Location     Type
;;                  3    0[COMMON] float 
;; Registers used:
;;		wreg, status,2, status,0
;; Tracked objects:
;;		On entry : 60/0
;;		On exit  : 60/0
;;		Unchanged: FFF9F/0
;; Data sizes:     COMMON   BANK0   BANK1   BANK3   BANK2
;;      Params:         5       0       0       0       0
;;      Locals:         0       0       0       0       0
;;      Temps:          3       0       0       0       0
;;      Totals:         8       0       0       0       0
;;Total ram usage:        8 bytes
;; Hardware stack levels used:    1
;; This function calls:
;;		Nothing
;; This function is called by:
;;		i1___ftadd
;; This function uses a non-reentrant model
;;
psect	text568
	file	"C:\Program Files (x86)\HI-TECH Software\PICC\9.83\sources\float.c"
	line	63
	global	__size_ofi1___ftpack
	__size_ofi1___ftpack	equ	__end_ofi1___ftpack-i1___ftpack
	
i1___ftpack:	
	opt	stack 0
; Regs used in i1___ftpack: [wreg+status,2+status,0]
	line	64
	
i1l6800:	
	movf	(i1___ftpack@exp),w
	skipz
	goto	u340_20
	goto	i1l6804
u340_20:
	
i1l6802:	
	movf	(i1___ftpack@arg+2),w
	iorwf	(i1___ftpack@arg+1),w
	iorwf	(i1___ftpack@arg),w
	skipz
	goto	u341_21
	goto	u341_20
u341_21:
	goto	i1l6810
u341_20:
	line	65
	
i1l6804:	
	clrf	(?i1___ftpack)
	clrf	(?i1___ftpack+1)
	clrf	(?i1___ftpack+2)
	goto	i1l3635
	line	67
	
i1l6808:	
	incf	(i1___ftpack@exp),f
	line	68
	clrc
	rrf	(i1___ftpack@arg+2),f
	rrf	(i1___ftpack@arg+1),f
	rrf	(i1___ftpack@arg),f
	line	66
	
i1l6810:	
	movlw	low highword(0FE0000h)
	andwf	(i1___ftpack@arg+2),w
	btfss	status,2
	goto	u342_21
	goto	u342_20
u342_21:
	goto	i1l6808
u342_20:
	goto	i1l6814
	line	71
	
i1l6812:	
	incf	(i1___ftpack@exp),f
	line	72
	incf	(i1___ftpack@arg),f
	skipnz
	incf	(i1___ftpack@arg+1),f
	skipnz
	incf	(i1___ftpack@arg+2),f
	line	73
	clrc
	rrf	(i1___ftpack@arg+2),f
	rrf	(i1___ftpack@arg+1),f
	rrf	(i1___ftpack@arg),f
	line	70
	
i1l6814:	
	movlw	low highword(0FF0000h)
	andwf	(i1___ftpack@arg+2),w
	btfss	status,2
	goto	u343_21
	goto	u343_20
u343_21:
	goto	i1l6812
u343_20:
	goto	i1l6818
	line	76
	
i1l6816:	
	decf	(i1___ftpack@exp),f
	line	77
	clrc
	rlf	(i1___ftpack@arg),f
	rlf	(i1___ftpack@arg+1),f
	rlf	(i1___ftpack@arg+2),f
	line	75
	
i1l6818:	
	btfss	(i1___ftpack@arg+1),(15)&7
	goto	u344_21
	goto	u344_20
u344_21:
	goto	i1l6816
u344_20:
	
i1l3644:	
	line	79
	btfsc	(i1___ftpack@exp),(0)&7
	goto	u345_21
	goto	u345_20
u345_21:
	goto	i1l3645
u345_20:
	line	80
	
i1l6820:	
	bcf	(i1___ftpack@arg)+(15/8),(15)&7
	
i1l3645:	
	line	81
	clrc
	rrf	(i1___ftpack@exp),f
	line	82
	
i1l6822:	
	movf	(i1___ftpack@exp),w
	movwf	((??i1___ftpack+0)+0+2)
	clrf	((??i1___ftpack+0)+0+1)
	clrf	((??i1___ftpack+0)+0+0)
	movf	0+(??i1___ftpack+0)+0,w
	iorwf	(i1___ftpack@arg),f
	movf	1+(??i1___ftpack+0)+0,w
	iorwf	(i1___ftpack@arg+1),f
	movf	2+(??i1___ftpack+0)+0,w
	iorwf	(i1___ftpack@arg+2),f
	line	83
	
i1l6824:	
	movf	(i1___ftpack@sign),w
	skipz
	goto	u346_20
	goto	i1l3646
u346_20:
	line	84
	
i1l6826:	
	bsf	(i1___ftpack@arg)+(23/8),(23)&7
	
i1l3646:	
	line	85
	line	86
	
i1l3635:	
	return
	opt stack 0
GLOBAL	__end_ofi1___ftpack
	__end_ofi1___ftpack:
;; =============== function i1___ftpack ends ============

	signat	i1___ftpack,91
psect	text569,local,class=CODE,delta=2
global __ptext569
__ptext569:
	global	btemp
	btemp set 07Eh

	DABS	1,126,2	;btemp
	global	wtemp0
	wtemp0 set btemp
	end
